; Borg Disassembler v2.27 : C:\Program Files (x86)\Microsoft Office\Office12\WINWORD.EXE
;
;             Created by Borg Disassembler
;                   written by Cronos

1000:30001000 ;-----------------------------------------------------------------------
1000:30001000 ;Segment : 1000h     Offset : 30001000h     Size : 1600h
1000:30001000 ;32-bit Code
1000:30001000 ;-----------------------------------------------------------------------
1000:30001000 ;                                   XREFS First: 1000:30001b71 Number : 1
1000:30001000 LoadLibraryExW:
1000:30001000 b0210000             dd     21b0h
1000:30001004 ;                                   XREFS First: 1000:3000159c Number : 3
1000:30001004 LoadLibraryW:
1000:30001004 c2210000             dd     21c2h
1000:30001008 ;                                   XREFS First: 1000:30001100 Number : 3
1000:30001008 GetProcAddress:
1000:30001008 d2210000             dd     21d2h
1000:3000100c ;                                   XREFS First: 1000:30001838 Number : 1
1000:3000100c GetLastError:
1000:3000100c e4210000             dd     21e4h
1000:30001010 ;                                   XREFS First: 1000:30001b22 Number : 1
1000:30001010 GetSystemDirectoryW:
1000:30001010 f4210000             dd     21f4h
1000:30001014 ;                                   XREFS First: 1000:300015fc Number : 4
1000:30001014 FreeLibrary:
1000:30001014 0a220000             dd     220ah
1000:30001018 ;                                   XREFS First: 1000:30001e0b Number : 1
1000:30001018 SetUnhandledExceptionFilter:
1000:30001018 18220000             dd     2218h
1000:3000101c ;                                   XREFS First: 1000:30001e16 Number : 1
1000:3000101c UnhandledExceptionFilter:
1000:3000101c 36220000             dd     2236h
1000:30001020 ;                                   XREFS First: 1000:30001e32 Number : 1
1000:30001020 GetCurrentProcess:
1000:30001020 52220000             dd     2252h
1000:30001024 ;                                   XREFS First: 1000:30001e39 Number : 1
1000:30001024 TerminateProcess:
1000:30001024 66220000             dd     2266h
1000:30001028 ;                                   XREFS First: 1000:300011db Number : 1
1000:30001028 GetStartupInfoA:
1000:30001028 7a220000             dd     227ah
1000:3000102c ;                                   XREFS First: 1000:30001201 Number : 1
1000:3000102c InterlockedCompareExchange:
1000:3000102c 8c220000             dd     228ch
1000:30001030 ;                                   XREFS First: 1000:300018fa Number : 1
1000:30001030 Sleep:
1000:30001030 aa220000             dd     22aah
1000:30001034 ;                                   XREFS First: 1000:30001275 Number : 1
1000:30001034 InterlockedExchange:
1000:30001034 b2220000             dd     22b2h
1000:30001038 ;                                   XREFS First: 1000:300010f9 Number : 1
1000:30001038 GetModuleHandleW:
1000:30001038 c8220000             dd     22c8h
1000:3000103c ;                                   XREFS First: 1000:30001112 Number : 1
1000:3000103c GetProcessHeap:
1000:3000103c dc220000             dd     22dch
1000:30001040 ;                                   XREFS First: 1000:3000111f Number : 1
1000:30001040 GetSystemTimeAsFileTime:
1000:30001040 ee220000             dd     22eeh
1000:30001044 ;                                   XREFS First: 1000:3000112b Number : 1
1000:30001044 GetCurrentProcessId:
1000:30001044 08230000             dd     2308h
1000:30001048 ;                                   XREFS First: 1000:30001133 Number : 1
1000:30001048 GetCurrentThreadId:
1000:30001048 1e230000             dd     231eh
1000:3000104c ;                                   XREFS First: 1000:3000113b Number : 1
1000:3000104c GetTickCount:
1000:3000104c 34230000             dd     2334h
1000:30001050 ;                                   XREFS First: 1000:30001147 Number : 1
1000:30001050 QueryPerformanceCounter:
1000:30001050 44230000             dd     2344h
1000:30001054 ;                                   XREFS First: 1000:30001153 Number : 1
1000:30001054 VirtualProtect:
1000:30001054 5e230000             dd     235eh
1000:30001058 ;                                   XREFS First: 1000:30001df6 Number : 1
1000:30001058 IsDebuggerPresent:
1000:30001058 70230000             dd     2370h
1000:3000105c 00000000             dd     00h
1000:30001060 ;                                   XREFS First: 1000:3000167a Number : 1
1000:30001060 RegQueryValueExW:
1000:30001060 84230000             dd     2384h
1000:30001064 ;                                   XREFS First: 1000:30001680 Number : 1
1000:30001064 RegCloseKey:
1000:30001064 98230000             dd     2398h
1000:30001068 ;                                   XREFS First: 1000:30001656 Number : 1
1000:30001068 RegOpenKeyExW:
1000:30001068 a6230000             dd     23a6h
1000:3000106c 00000000             dd     00h
1000:30001070 ;                                   XREFS First: 1000:30001f9f Number : 1
1000:30001070 _crt_debugger_hook:
1000:30001070 b6230000             dd     23b6h
1000:30001074 _unlock:
1000:30001074 cc230000             dd     23cch
1000:30001078 __dllonexit:
1000:30001078 d6230000             dd     23d6h
1000:3000107c _lock:
1000:3000107c e4230000             dd     23e4h
1000:30001080 _onexit:
1000:30001080 ec230000             dd     23ech
1000:30001084 _decode_pointer:
1000:30001084 f6230000             dd     23f6h
1000:30001088 _except_handler4_common:
1000:30001088 08240000             dd     2408h
1000:3000108c _invoke_watson:
1000:3000108c 22240000             dd     2422h
1000:30001090 _controlfp_s:
1000:30001090 34240000             dd     2434h
1000:30001094 _encode_pointer:
1000:30001094 44240000             dd     2444h
1000:30001098 __p__fmode:
1000:30001098 56240000             dd     2456h
1000:3000109c __p__commode:
1000:3000109c 64240000             dd     2464h
1000:300010a0 _adjust_fdiv:
1000:300010a0 74240000             dd     2474h
1000:300010a4 __setusermatherr:
1000:300010a4 84240000             dd     2484h
1000:300010a8 _configthreadlocale:
1000:300010a8 98240000             dd     2498h
1000:300010ac ;                                   XREFS First: 1000:30001345 Number : 1
1000:300010ac _initterm_e:
1000:300010ac ae240000             dd     24aeh
1000:300010b0 ;                                   XREFS First: 1000:30001461 Number : 1
1000:300010b0 _initterm:
1000:300010b0 bc240000             dd     24bch
1000:300010b4 ;                                   XREFS First: 1000:30001288 Number : 1
1000:300010b4 _acmdln:
1000:300010b4 c8240000             dd     24c8h
1000:300010b8 ;                                   XREFS First: 1000:30001945 Number : 1
1000:300010b8 exit:
1000:300010b8 d2240000             dd     24d2h
1000:300010bc ;                                   XREFS First: 1000:300012a9 Number : 1
1000:300010bc _ismbblead:
1000:300010bc da240000             dd     24dah
1000:300010c0 _XcptFilter:
1000:300010c0 e8240000             dd     24e8h
1000:300010c4 _exit:
1000:300010c4 f6240000             dd     24f6h
1000:300010c8 ;                                   XREFS First: 1000:3000198c Number : 1
1000:300010c8 _cexit:
1000:300010c8 fe240000             dd     24feh
1000:300010cc __getmainargs:
1000:300010cc 08250000             dd     2508h
1000:300010d0 ;                                   XREFS First: 1000:30001e4c Number : 1
1000:300010d0 _amsg_exit:
1000:300010d0 18250000             dd     2518h
1000:300010d4 __set_app_type:
1000:300010d4 26250000             dd     2526h
1000:300010d8 00000000             dd     00h
1000:300010dc start:
1000:300010dc e805000000           call   loc_300010e6
1000:300010e1 e9dd000000           jmp    loc_300011c3
1000:300010e6 ;                                   XREFS First: 1000:300010dc Number : 1
1000:300010e6 loc_300010e6:
1000:300010e6 55                   push   ebp
1000:300010e7 8bec                 mov    ebp, esp
1000:300010e9 83ec14               sub    esp, 14h
1000:300010ec 53                   push   ebx
1000:300010ed 56                   push   esi
1000:300010ee 57                   push   edi
1000:300010ef 68b0110030           push   offset loc_300011b0
1000:300010f4 6894110030           push   offset loc_30001194
1000:300010f9 ff1538100030         call   dword ptr [GetModuleHandleW]
1000:300010ff 50                   push   eax
1000:30001100 ff1508100030         call   dword ptr [GetProcAddress]
1000:30001106 8bf0                 mov    esi, eax
1000:30001108 85f6                 test   esi, esi
1000:3000110a 740f                 jz     loc_3000111b
1000:3000110c 6a00                 push   00h
1000:3000110e 6a00                 push   00h
1000:30001110 6a01                 push   01h
1000:30001112 ff153c100030         call   dword ptr [GetProcessHeap]
1000:30001118 50                   push   eax
1000:30001119 ffd6                 call   esi
1000:3000111b ;                                   XREFS First: 1000:3000110a Number : 1
1000:3000111b loc_3000111b:
1000:3000111b 8d45f4               lea    eax, [ebp-0ch]
1000:3000111e 50                   push   eax
1000:3000111f ff1540100030         call   dword ptr [GetSystemTimeAsFileTime]
1000:30001125 8b75f8               mov    esi, [ebp-08h]
1000:30001128 3375f4               xor    esi, [ebp-0ch]
1000:3000112b ff1544100030         call   dword ptr [GetCurrentProcessId]
1000:30001131 33f0                 xor    esi, eax
1000:30001133 ff1548100030         call   dword ptr [GetCurrentThreadId]
1000:30001139 33f0                 xor    esi, eax
1000:3000113b ff154c100030         call   dword ptr [GetTickCount]
1000:30001141 33f0                 xor    esi, eax
1000:30001143 8d45ec               lea    eax, [ebp-14h]
1000:30001146 50                   push   eax
1000:30001147 ff1550100030         call   dword ptr [QueryPerformanceCounter]
1000:3000114d 8b45f0               mov    eax, [ebp-10h]
1000:30001150 3345ec               xor    eax, [ebp-14h]
1000:30001153 8b3d54100030         mov    edi, dword ptr [VirtualProtect]
1000:30001159 33f0                 xor    esi, eax
1000:3000115b 8d45fc               lea    eax, [ebp-04h]
1000:3000115e 50                   push   eax
1000:3000115f 6a40                 push   40h
1000:30001161 6a04                 push   04h
1000:30001163 bb74170030           mov    ebx, offset loc_30001774
1000:30001168 53                   push   ebx
1000:30001169 ffd7                 call   edi
1000:3000116b 85f6                 test   esi, esi
1000:3000116d 893574170030         mov    dword ptr [loc_30001774], esi
1000:30001173 0f84ff050000         jz     loc_30001778
1000:30001179 ;                                   XREFS First: 1000:30001782 Number : 1
1000:30001179 loc_30001179:
1000:30001179 8d45fc               lea    eax, [ebp-04h]
1000:3000117c 50                   push   eax
1000:3000117d ff75fc               push   dword ptr [ebp-04h]
1000:30001180 6a04                 push   04h
1000:30001182 53                   push   ebx
1000:30001183 ffd7                 call   edi
1000:30001185 5f                   pop    edi
1000:30001186 5e                   pop    esi
1000:30001187 c70500300030b119bf44 mov    dword ptr [loc_30003000], 44bf19b1h
1000:30001191 5b                   pop    ebx
1000:30001192 c9                   leave  
1000:30001193 c3                   ret    
1000:30001194 ;                                   XREFS First: 1000:300010f4 Number : 1
1000:30001194 loc_30001194:
1000:30001194 6b                   db     6bh     ;'k'
1000:30001195 00                   db     00h
1000:30001196 65                   db     65h     ;'e'
1000:30001197 00                   db     00h
1000:30001198 72                   db     72h     ;'r'
1000:30001199 00                   db     00h
1000:3000119a 6e                   db     6eh     ;'n'
1000:3000119b 00                   db     00h
1000:3000119c 65                   db     65h     ;'e'
1000:3000119d 00                   db     00h
1000:3000119e 6c                   db     6ch     ;'l'
1000:3000119f 00                   db     00h
1000:300011a0 33                   db     33h     ;'3'
1000:300011a1 00                   db     00h
1000:300011a2 32                   db     32h     ;'2'
1000:300011a3 00                   db     00h
1000:300011a4 2e                   db     2eh     ;'.'
1000:300011a5 00                   db     00h
1000:300011a6 64                   db     64h     ;'d'
1000:300011a7 00                   db     00h
1000:300011a8 6c                   db     6ch     ;'l'
1000:300011a9 00                   db     00h
1000:300011aa 6c                   db     6ch     ;'l'
1000:300011ab 00                   db     00h
1000:300011ac 00                   db     00h
1000:300011ad 00                   db     00h
1000:300011ae 90                   db     90h
1000:300011af 90                   db     90h
1000:300011b0 ;                                   XREFS First: 1000:300010ef Number : 1
1000:300011b0 loc_300011b0:
1000:300011b0 48                   db     48h     ;'H'
1000:300011b1 65                   db     65h     ;'e'
1000:300011b2 61                   db     61h     ;'a'
1000:300011b3 70                   db     70h     ;'p'
1000:300011b4 53                   db     53h     ;'S'
1000:300011b5 65                   db     65h     ;'e'
1000:300011b6 74                   db     74h     ;'t'
1000:300011b7 49                   db     49h     ;'I'
1000:300011b8 6e                   db     6eh     ;'n'
1000:300011b9 66                   db     66h     ;'f'
1000:300011ba 6f                   db     6fh     ;'o'
1000:300011bb 72                   db     72h     ;'r'
1000:300011bc 6d                   db     6dh     ;'m'
1000:300011bd 61                   db     61h     ;'a'
1000:300011be 74                   db     74h     ;'t'
1000:300011bf 69                   db     69h     ;'i'
1000:300011c0 6f                   db     6fh     ;'o'
1000:300011c1 6e                   db     6eh     ;'n'
1000:300011c2 00                   db     00h
1000:300011c3 ;                                   XREFS First: 1000:300010e1 Number : 1
1000:300011c3 loc_300011c3:
1000:300011c3 6a58                 push   58h
1000:300011c5 68d8120030           push   offset loc_300012d8
1000:300011ca e831010000           call   loc_30001300
1000:300011cf 33db                 xor    ebx, ebx
1000:300011d1 895de4               mov    [ebp-1ch], ebx
1000:300011d4 895dfc               mov    [ebp-04h], ebx
1000:300011d7 8d4598               lea    eax, [ebp-68h]
1000:300011da 50                   push   eax
1000:300011db ff1528100030         call   dword ptr [GetStartupInfoA]
1000:300011e1 c745fcfeffffff       mov    dword ptr [ebp-04h], 0fffffffeh
1000:300011e8 c745fc01000000       mov    dword ptr [ebp-04h], 01h
1000:300011ef 64a118000000         mov    eax, fs:dword ptr [18h]
1000:300011f5 8b7004               mov    esi, [eax+04h]
1000:300011f8 bf44300030           mov    edi, offset loc_30003044
1000:300011fd ;                                   XREFS First: 1000:30001900 Number : 1
1000:300011fd loc_300011fd:
1000:300011fd 6a00                 push   00h
1000:300011ff 56                   push   esi
1000:30001200 57                   push   edi
1000:30001201 ff152c100030         call   dword ptr [InterlockedCompareExchange]
1000:30001207 85c0                 test   eax, eax
1000:30001209 0f85d8060000         jnz    loc_300018e7
1000:3000120f 33f6                 xor    esi, esi
1000:30001211 46                   inc    esi
1000:30001212 ;                                   XREFS First: 1000:300018f0 Number : 1
1000:30001212 loc_30001212:
1000:30001212 a140300030           mov    eax, dword ptr [loc_30003040]
1000:30001217 3bc6                 cmp    eax, esi
1000:30001219 0f84e6060000         jz     loc_30001905
1000:3000121f a140300030           mov    eax, dword ptr [loc_30003040]
1000:30001224 85c0                 test   eax, eax
1000:30001226 0f854c030000         jnz    loc_30001578
1000:3000122c 893540300030         mov    dword ptr [loc_30003040], esi
1000:30001232 68d0120030           push   offset loc_300012d0
1000:30001237 68c8120030           push   offset loc_300012c8
1000:3000123c e804010000           call   __initterm_e
1000:30001241 59                   pop    ecx
1000:30001242 59                   pop    ecx
1000:30001243 85c0                 test   eax, eax
1000:30001245 0f855c070000         jnz    loc_300019a7
1000:3000124b ;                                   XREFS First: 1000:3000157e Number : 2
1000:3000124b loc_3000124b:
1000:3000124b a140300030           mov    eax, dword ptr [loc_30003040]
1000:30001250 3bc6                 cmp    eax, esi
1000:30001252 751b                 jnz    loc_3000126f
1000:30001254 68c4120030           push   offset loc_300012c4
1000:30001259 68bc120030           push   offset loc_300012bc
1000:3000125e e8fe010000           call   __initterm
1000:30001263 59                   pop    ecx
1000:30001264 59                   pop    ecx
1000:30001265 c7054030003002000000 mov    dword ptr [loc_30003040], 02h
1000:3000126f ;                                   XREFS First: 1000:30001252 Number : 1
1000:3000126f loc_3000126f:
1000:3000126f 85db                 test   ebx, ebx
1000:30001271 7508                 jnz    loc_3000127b
1000:30001273 53                   push   ebx
1000:30001274 57                   push   edi
1000:30001275 ff1534100030         call   dword ptr [InterlockedExchange]
1000:3000127b ;                                   XREFS First: 1000:30001271 Number : 1
1000:3000127b loc_3000127b:
1000:3000127b 833d5030003000       cmp    dword ptr [loc_30003050], 00h
1000:30001282 0f858a060000         jnz    loc_30001912
1000:30001288 ;                                   XREFS First: 1000:3000191f Number : 2
1000:30001288 loc_30001288:
1000:30001288 a1b4100030           mov    eax, dword ptr [_acmdln]
1000:3000128d 8b30                 mov    esi, [eax]
1000:3000128f 90                   nop    
1000:30001290 ;                                   XREFS First: 1000:300012b9 Number : 1
1000:30001290 loc_30001290:
1000:30001290 8975e0               mov    [ebp-20h], esi
1000:30001293 8a06                 mov    al, [esi]
1000:30001295 3c20                 cmp    al, 20h
1000:30001297 0f869b020000         jbe    loc_30001538
1000:3000129d ;                                   XREFS First: 1000:30001540 Number : 1
1000:3000129d loc_3000129d:
1000:3000129d 3c22                 cmp    al, 22h
1000:3000129f 0f8483020000         jz     loc_30001528
1000:300012a5 ;                                   XREFS First: 1000:30001533 Number : 1
1000:300012a5 loc_300012a5:
1000:300012a5 0fb6c0               movzx  eax, al
1000:300012a8 50                   push   eax
1000:300012a9 ff15bc100030         call   dword ptr [_ismbblead]
1000:300012af 59                   pop    ecx
1000:300012b0 85c0                 test   eax, eax
1000:300012b2 0f8593060000         jnz    loc_3000194b
1000:300012b8 ;                                   XREFS First: 1000:3000194f Number : 1
1000:300012b8 loc_300012b8:
1000:300012b8 46                   inc    esi
1000:300012b9 ebd5                 jmp    loc_30001290
1000:300012bb 90                   db     90h
1000:300012bc ;                                   XREFS First: 1000:30001259 Number : 1
1000:300012bc loc_300012bc:
1000:300012bc 00                   db     00h
1000:300012bd 00                   db     00h
1000:300012be 00                   db     00h
1000:300012bf 00                   db     00h
1000:300012c0 67                   db     67h     ;'g'
1000:300012c1 14                   db     14h
1000:300012c2 00                   db     00h
1000:300012c3 30                   db     30h     ;'0'
1000:300012c4 ;                                   XREFS First: 1000:30001254 Number : 1
1000:300012c4 loc_300012c4:
1000:300012c4 00                   db     00h
1000:300012c5 00                   db     00h
1000:300012c6 00                   db     00h
1000:300012c7 00                   db     00h
1000:300012c8 ;                                   XREFS First: 1000:30001237 Number : 1
1000:300012c8 loc_300012c8:
1000:300012c8 00                   db     00h
1000:300012c9 00                   db     00h
1000:300012ca 00                   db     00h
1000:300012cb 00                   db     00h
1000:300012cc 4b                   db     4bh     ;'K'
1000:300012cd 13                   db     13h
1000:300012ce 00                   db     00h
1000:300012cf 30                   db     30h     ;'0'
1000:300012d0 ;                                   XREFS First: 1000:30001232 Number : 1
1000:300012d0 loc_300012d0:
1000:300012d0 00                   db     00h
1000:300012d1 00                   db     00h
1000:300012d2 00                   db     00h
1000:300012d3 00                   db     00h
1000:300012d4 90                   db     90h
1000:300012d5 90                   db     90h
1000:300012d6 90                   db     90h
1000:300012d7 90                   db     90h
1000:300012d8 ;                                   XREFS First: 1000:300011c5 Number : 1
1000:300012d8 loc_300012d8:
1000:300012d8 fe                   db     0feh
1000:300012d9 ff                   db     0ffh
1000:300012da ff                   db     0ffh
1000:300012db ff                   db     0ffh
1000:300012dc 00                   db     00h
1000:300012dd 00                   db     00h
1000:300012de 00                   db     00h
1000:300012df 00                   db     00h
1000:300012e0 88                   db     88h
1000:300012e1 ff                   db     0ffh
1000:300012e2 ff                   db     0ffh
1000:300012e3 ff                   db     0ffh
1000:300012e4 00                   db     00h
1000:300012e5 00                   db     00h
1000:300012e6 00                   db     00h
1000:300012e7 00                   db     00h
1000:300012e8 fe                   db     0feh
1000:300012e9 ff                   db     0ffh
1000:300012ea ff                   db     0ffh
1000:300012eb ff                   db     0ffh
1000:300012ec a0                   db     0a0h
1000:300012ed 19                   db     19h
1000:300012ee 00                   db     00h
1000:300012ef 30                   db     30h     ;'0'
1000:300012f0 a4                   db     0a4h
1000:300012f1 19                   db     19h
1000:300012f2 00                   db     00h
1000:300012f3 30                   db     30h     ;'0'
1000:300012f4 fe                   db     0feh
1000:300012f5 ff                   db     0ffh
1000:300012f6 ff                   db     0ffh
1000:300012f7 ff                   db     0ffh
1000:300012f8 54                   db     54h     ;'T'
1000:300012f9 19                   db     19h
1000:300012fa 00                   db     00h
1000:300012fb 30                   db     30h     ;'0'
1000:300012fc 68                   db     68h     ;'h'
1000:300012fd 19                   db     19h
1000:300012fe 00                   db     00h
1000:300012ff 30                   db     30h     ;'0'
1000:30001300 ;                                   XREFS First: 1000:300011ca Number : 2
1000:30001300 loc_30001300:
1000:30001300 687c1f0030           push   offset loc_30001f7c
1000:30001305 64ff3500000000       push   dword ptr fs:[00h]
1000:3000130c 8b442410             mov    eax, [esp+10h]
1000:30001310 896c2410             mov    [esp+10h], ebp
1000:30001314 8d6c2410             lea    ebp, [esp+10h]
1000:30001318 2be0                 sub    esp, eax
1000:3000131a 53                   push   ebx
1000:3000131b 56                   push   esi
1000:3000131c 57                   push   edi
1000:3000131d a174170030           mov    eax, dword ptr [loc_30001774]
1000:30001322 3145fc               xor    [ebp-04h], eax
1000:30001325 33c5                 xor    eax, ebp
1000:30001327 50                   push   eax
1000:30001328 8965e8               mov    [ebp-18h], esp
1000:3000132b ff75f8               push   dword ptr [ebp-08h]
1000:3000132e 8b45fc               mov    eax, [ebp-04h]
1000:30001331 c745fcfeffffff       mov    dword ptr [ebp-04h], 0fffffffeh
1000:30001338 8945f8               mov    [ebp-08h], eax
1000:3000133b 8d45f0               lea    eax, [ebp-10h]
1000:3000133e 64a300000000         mov    fs:dword ptr [00h], eax
1000:30001344 c3                   ret    
1000:30001345 ;                                   XREFS First: 1000:3000123c Number : 1
1000:30001345 __initterm_e:
1000:30001345 ff25ac100030         jmp    dword ptr [_initterm_e]
1000:3000134b 66                   db     66h     ;'f'
1000:3000134c 81                   db     81h
1000:3000134d 3d                   db     3dh     ;'='
1000:3000134e 00                   db     00h
1000:3000134f 00                   db     00h
1000:30001350 00                   db     00h
1000:30001351 30                   db     30h     ;'0'
1000:30001352 4d                   db     4dh     ;'M'
1000:30001353 5a                   db     5ah     ;'Z'
1000:30001354 0f                   db     0fh
1000:30001355 85                   db     85h
1000:30001356 b7                   db     0b7h
1000:30001357 00                   db     00h
1000:30001358 00                   db     00h
1000:30001359 00                   db     00h
1000:3000135a a1                   db     0a1h
1000:3000135b 3c                   db     3ch     ;'<'
1000:3000135c 00                   db     00h
1000:3000135d 00                   db     00h
1000:3000135e 30                   db     30h     ;'0'
1000:3000135f 81                   db     81h
1000:30001360 b8                   db     0b8h
1000:30001361 00                   db     00h
1000:30001362 00                   db     00h
1000:30001363 00                   db     00h
1000:30001364 30                   db     30h     ;'0'
1000:30001365 50                   db     50h     ;'P'
1000:30001366 45                   db     45h     ;'E'
1000:30001367 00                   db     00h
1000:30001368 00                   db     00h
1000:30001369 0f                   db     0fh
1000:3000136a 85                   db     85h
1000:3000136b a2                   db     0a2h
1000:3000136c 00                   db     00h
1000:3000136d 00                   db     00h
1000:3000136e 00                   db     00h
1000:3000136f 0f                   db     0fh
1000:30001370 b7                   db     0b7h
1000:30001371 88                   db     88h
1000:30001372 18                   db     18h
1000:30001373 00                   db     00h
1000:30001374 00                   db     00h
1000:30001375 30                   db     30h     ;'0'
1000:30001376 81                   db     81h
1000:30001377 f9                   db     0f9h
1000:30001378 0b                   db     0bh
1000:30001379 01                   db     01h
1000:3000137a 00                   db     00h
1000:3000137b 00                   db     00h
1000:3000137c 0f                   db     0fh
1000:3000137d 85                   db     85h
1000:3000137e 37                   db     37h     ;'7'
1000:3000137f 06                   db     06h
1000:30001380 00                   db     00h
1000:30001381 00                   db     00h
1000:30001382 83                   db     83h
1000:30001383 b8                   db     0b8h
1000:30001384 74                   db     74h     ;'t'
1000:30001385 00                   db     00h
1000:30001386 00                   db     00h
1000:30001387 30                   db     30h     ;'0'
1000:30001388 0e                   db     0eh
1000:30001389 0f                   db     0fh
1000:3000138a 86                   db     86h
1000:3000138b 82                   db     82h
1000:3000138c 00                   db     00h
1000:3000138d 00                   db     00h
1000:3000138e 00                   db     00h
1000:3000138f 33                   db     33h     ;'3'
1000:30001390 c9                   db     0c9h
1000:30001391 39                   db     39h     ;'9'
1000:30001392 88                   db     88h
1000:30001393 e8                   db     0e8h
1000:30001394 00                   db     00h
1000:30001395 00                   db     00h
1000:30001396 30                   db     30h     ;'0'
1000:30001397 0f                   db     0fh
1000:30001398 95                   db     95h
1000:30001399 c1                   db     0c1h
1000:3000139a 8b                   db     8bh
1000:3000139b c1                   db     0c1h
1000:3000139c 6a                   db     6ah     ;'j'
1000:3000139d 02                   db     02h
1000:3000139e a3                   db     0a3h
1000:3000139f 20                   db     20h     ;' '
1000:300013a0 30                   db     30h     ;'0'
1000:300013a1 00                   db     00h
1000:300013a2 30                   db     30h     ;'0'
1000:300013a3 ff                   db     0ffh
1000:300013a4 15                   db     15h
1000:300013a5 d4                   db     0d4h
1000:300013a6 10                   db     10h
1000:300013a7 00                   db     00h
1000:300013a8 30                   db     30h     ;'0'
1000:300013a9 6a                   db     6ah     ;'j'
1000:300013aa ff                   db     0ffh
1000:300013ab ff                   db     0ffh
1000:300013ac 15                   db     15h
1000:300013ad 94                   db     94h
1000:300013ae 10                   db     10h
1000:300013af 00                   db     00h
1000:300013b0 30                   db     30h     ;'0'
1000:300013b1 59                   db     59h     ;'Y'
1000:300013b2 59                   db     59h     ;'Y'
1000:300013b3 a3                   db     0a3h
1000:300013b4 48                   db     48h     ;'H'
1000:300013b5 30                   db     30h     ;'0'
1000:300013b6 00                   db     00h
1000:300013b7 30                   db     30h     ;'0'
1000:300013b8 a3                   db     0a3h
1000:300013b9 4c                   db     4ch     ;'L'
1000:300013ba 30                   db     30h     ;'0'
1000:300013bb 00                   db     00h
1000:300013bc 30                   db     30h     ;'0'
1000:300013bd ff                   db     0ffh
1000:300013be 15                   db     15h
1000:300013bf 98                   db     98h
1000:300013c0 10                   db     10h
1000:300013c1 00                   db     00h
1000:300013c2 30                   db     30h     ;'0'
1000:300013c3 8b                   db     8bh
1000:300013c4 0d                   db     0dh
1000:300013c5 38                   db     38h     ;'8'
1000:300013c6 30                   db     30h     ;'0'
1000:300013c7 00                   db     00h
1000:300013c8 30                   db     30h     ;'0'
1000:300013c9 89                   db     89h
1000:300013ca 08                   db     08h
1000:300013cb ff                   db     0ffh
1000:300013cc 15                   db     15h
1000:300013cd 9c                   db     9ch
1000:300013ce 10                   db     10h
1000:300013cf 00                   db     00h
1000:300013d0 30                   db     30h     ;'0'
1000:300013d1 8b                   db     8bh
1000:300013d2 0d                   db     0dh
1000:300013d3 34                   db     34h     ;'4'
1000:300013d4 30                   db     30h     ;'0'
1000:300013d5 00                   db     00h
1000:300013d6 30                   db     30h     ;'0'
1000:300013d7 89                   db     89h
1000:300013d8 08                   db     08h
1000:300013d9 a1                   db     0a1h
1000:300013da a0                   db     0a0h
1000:300013db 10                   db     10h
1000:300013dc 00                   db     00h
1000:300013dd 30                   db     30h     ;'0'
1000:300013de 8b                   db     8bh
1000:300013df 00                   db     00h
1000:300013e0 a3                   db     0a3h
1000:300013e1 3c                   db     3ch     ;'<'
1000:300013e2 30                   db     30h     ;'0'
1000:300013e3 00                   db     00h
1000:300013e4 30                   db     30h     ;'0'
1000:300013e5 e8                   db     0e8h
1000:300013e6 2b                   db     2bh     ;'+'
1000:300013e7 00                   db     00h
1000:300013e8 00                   db     00h
1000:300013e9 00                   db     00h
1000:300013ea e8                   db     0e8h
1000:300013eb 49                   db     49h     ;'I'
1000:300013ec 00                   db     00h
1000:300013ed 00                   db     00h
1000:300013ee 00                   db     00h
1000:300013ef 83                   db     83h
1000:300013f0 3d                   db     3dh     ;'='
1000:300013f1 08                   db     08h
1000:300013f2 30                   db     30h     ;'0'
1000:300013f3 00                   db     00h
1000:300013f4 30                   db     30h     ;'0'
1000:300013f5 00                   db     00h
1000:300013f6 0f                   db     0fh
1000:300013f7 84                   db     84h
1000:300013f8 e3                   db     0e3h
1000:300013f9 05                   db     05h
1000:300013fa 00                   db     00h
1000:300013fb 00                   db     00h
1000:300013fc e8                   db     0e8h
1000:300013fd 3a                   db     3ah     ;':'
1000:300013fe 00                   db     00h
1000:300013ff 00                   db     00h
1000:30001400 00                   db     00h
1000:30001401 83                   db     83h
1000:30001402 3d                   db     3dh     ;'='
1000:30001403 04                   db     04h
1000:30001404 30                   db     30h     ;'0'
1000:30001405 00                   db     00h
1000:30001406 30                   db     30h     ;'0'
1000:30001407 ff                   db     0ffh
1000:30001408 0f                   db     0fh
1000:30001409 84                   db     84h
1000:3000140a e2                   db     0e2h
1000:3000140b 05                   db     05h
1000:3000140c 00                   db     00h
1000:3000140d 00                   db     00h
1000:3000140e 33                   db     33h     ;'3'
1000:3000140f c0                   db     0c0h
1000:30001410 c3                   db     0c3h
1000:30001411 33                   db     33h     ;'3'
1000:30001412 c0                   db     0c0h
1000:30001413 eb                   db     0ebh
1000:30001414 87                   db     87h
1000:30001415 56                   db     56h     ;'V'
1000:30001416 57                   db     57h     ;'W'
1000:30001417 b8                   db     0b8h
1000:30001418 34                   db     34h     ;'4'
1000:30001419 14                   db     14h
1000:3000141a 00                   db     00h
1000:3000141b 30                   db     30h     ;'0'
1000:3000141c bf                   db     0bfh
1000:3000141d 34                   db     34h     ;'4'
1000:3000141e 14                   db     14h
1000:3000141f 00                   db     00h
1000:30001420 30                   db     30h     ;'0'
1000:30001421 3b                   db     3bh     ;';'
1000:30001422 c7                   db     0c7h
1000:30001423 8b                   db     8bh
1000:30001424 f0                   db     0f0h
1000:30001425 0f                   db     0fh
1000:30001426 82                   db     82h
1000:30001427 5c                   db     5ch     ;'\'
1000:30001428 03                   db     03h
1000:30001429 00                   db     00h
1000:3000142a 00                   db     00h
1000:3000142b 5f                   db     5fh     ;'_'
1000:3000142c 5e                   db     5eh     ;'^'
1000:3000142d c3                   db     0c3h
1000:3000142e 90                   db     90h
1000:3000142f 90                   db     90h
1000:30001430 00                   db     00h
1000:30001431 00                   db     00h
1000:30001432 00                   db     00h
1000:30001433 00                   db     00h
1000:30001434 00                   db     00h
1000:30001435 00                   db     00h
1000:30001436 00                   db     00h
1000:30001437 00                   db     00h
1000:30001438 33                   db     33h     ;'3'
1000:30001439 c0                   db     0c0h
1000:3000143a c3                   db     0c3h
1000:3000143b 56                   db     56h     ;'V'
1000:3000143c 68                   db     68h     ;'h'
1000:3000143d 00                   db     00h
1000:3000143e 00                   db     00h
1000:3000143f 03                   db     03h
1000:30001440 00                   db     00h
1000:30001441 68                   db     68h     ;'h'
1000:30001442 00                   db     00h
1000:30001443 00                   db     00h
1000:30001444 01                   db     01h
1000:30001445 00                   db     00h
1000:30001446 33                   db     33h     ;'3'
1000:30001447 f6                   db     0f6h
1000:30001448 56                   db     56h     ;'V'
1000:30001449 e8                   db     0e8h
1000:3000144a 0d                   db     0dh
1000:3000144b 00                   db     00h
1000:3000144c 00                   db     00h
1000:3000144d 00                   db     00h
1000:3000144e 83                   db     83h
1000:3000144f c4                   db     0c4h
1000:30001450 0c                   db     0ch
1000:30001451 85                   db     85h
1000:30001452 c0                   db     0c0h
1000:30001453 0f                   db     0fh
1000:30001454 85                   db     85h
1000:30001455 43                   db     43h     ;'C'
1000:30001456 03                   db     03h
1000:30001457 00                   db     00h
1000:30001458 00                   db     00h
1000:30001459 5e                   db     5eh     ;'^'
1000:3000145a c3                   db     0c3h
1000:3000145b ff                   db     0ffh
1000:3000145c 25                   db     25h     ;'%'
1000:3000145d 90                   db     90h
1000:3000145e 10                   db     10h
1000:3000145f 00                   db     00h
1000:30001460 30                   db     30h     ;'0'
1000:30001461 ;                                   XREFS First: 1000:3000125e Number : 1
1000:30001461 __initterm:
1000:30001461 ff25b0100030         jmp    dword ptr [_initterm]
1000:30001467 68                   db     68h     ;'h'
1000:30001468 52                   db     52h     ;'R'
1000:30001469 1e                   db     1eh
1000:3000146a 00                   db     00h
1000:3000146b 30                   db     30h     ;'0'
1000:3000146c e8                   db     0e8h
1000:3000146d 3d                   db     3dh     ;'='
1000:3000146e 00                   db     00h
1000:3000146f 00                   db     00h
1000:30001470 00                   db     00h
1000:30001471 a1                   db     0a1h
1000:30001472 30                   db     30h     ;'0'
1000:30001473 30                   db     30h     ;'0'
1000:30001474 00                   db     00h
1000:30001475 30                   db     30h     ;'0'
1000:30001476 c7                   db     0c7h
1000:30001477 04                   db     04h
1000:30001478 24                   db     24h     ;'$'
1000:30001479 28                   db     28h     ;'('
1000:3000147a 30                   db     30h     ;'0'
1000:3000147b 00                   db     00h
1000:3000147c 30                   db     30h     ;'0'
1000:3000147d ff                   db     0ffh
1000:3000147e 35                   db     35h     ;'5'
1000:3000147f 2c                   db     2ch     ;','
1000:30001480 30                   db     30h     ;'0'
1000:30001481 00                   db     00h
1000:30001482 30                   db     30h     ;'0'
1000:30001483 a3                   db     0a3h
1000:30001484 28                   db     28h     ;'('
1000:30001485 30                   db     30h     ;'0'
1000:30001486 00                   db     00h
1000:30001487 30                   db     30h     ;'0'
1000:30001488 68                   db     68h     ;'h'
1000:30001489 18                   db     18h
1000:3000148a 30                   db     30h     ;'0'
1000:3000148b 00                   db     00h
1000:3000148c 30                   db     30h     ;'0'
1000:3000148d 68                   db     68h     ;'h'
1000:3000148e 1c                   db     1ch
1000:3000148f 30                   db     30h     ;'0'
1000:30001490 00                   db     00h
1000:30001491 30                   db     30h     ;'0'
1000:30001492 68                   db     68h     ;'h'
1000:30001493 14                   db     14h
1000:30001494 30                   db     30h     ;'0'
1000:30001495 00                   db     00h
1000:30001496 30                   db     30h     ;'0'
1000:30001497 ff                   db     0ffh
1000:30001498 15                   db     15h
1000:30001499 cc                   db     0cch
1000:3000149a 10                   db     10h
1000:3000149b 00                   db     00h
1000:3000149c 30                   db     30h     ;'0'
1000:3000149d 83                   db     83h
1000:3000149e c4                   db     0c4h
1000:3000149f 14                   db     14h
1000:300014a0 85                   db     85h
1000:300014a1 c0                   db     0c0h
1000:300014a2 a3                   db     0a3h
1000:300014a3 24                   db     24h     ;'$'
1000:300014a4 30                   db     30h     ;'0'
1000:300014a5 00                   db     00h
1000:300014a6 30                   db     30h     ;'0'
1000:300014a7 0f                   db     0fh
1000:300014a8 8c                   db     8ch
1000:300014a9 2d                   db     2dh     ;'-'
1000:300014aa 04                   db     04h
1000:300014ab 00                   db     00h
1000:300014ac 00                   db     00h
1000:300014ad c3                   db     0c3h
1000:300014ae ff                   db     0ffh
1000:300014af 74                   db     74h     ;'t'
1000:300014b0 24                   db     24h     ;'$'
1000:300014b1 04                   db     04h
1000:300014b2 e8                   db     0e8h
1000:300014b3 09                   db     09h
1000:300014b4 00                   db     00h
1000:300014b5 00                   db     00h
1000:300014b6 00                   db     00h
1000:300014b7 f7                   db     0f7h
1000:300014b8 d8                   db     0d8h
1000:300014b9 1b                   db     1bh
1000:300014ba c0                   db     0c0h
1000:300014bb f7                   db     0f7h
1000:300014bc d8                   db     0d8h
1000:300014bd 59                   db     59h     ;'Y'
1000:300014be 48                   db     48h     ;'H'
1000:300014bf c3                   db     0c3h
1000:300014c0 6a                   db     6ah     ;'j'
1000:300014c1 14                   db     14h
1000:300014c2 68                   db     68h     ;'h'
1000:300014c3 f8                   db     0f8h
1000:300014c4 14                   db     14h
1000:300014c5 00                   db     00h
1000:300014c6 30                   db     30h     ;'0'
1000:300014c7 e8                   db     0e8h
1000:300014c8 34                   db     34h     ;'4'
1000:300014c9 fe                   db     0feh
1000:300014ca ff                   db     0ffh
1000:300014cb ff                   db     0ffh
1000:300014cc ff                   db     0ffh
1000:300014cd 35                   db     35h     ;'5'
1000:300014ce 4c                   db     4ch     ;'L'
1000:300014cf 30                   db     30h     ;'0'
1000:300014d0 00                   db     00h
1000:300014d1 30                   db     30h     ;'0'
1000:300014d2 8b                   db     8bh
1000:300014d3 35                   db     35h     ;'5'
1000:300014d4 84                   db     84h
1000:300014d5 10                   db     10h
1000:300014d6 00                   db     00h
1000:300014d7 30                   db     30h     ;'0'
1000:300014d8 ff                   db     0ffh
1000:300014d9 d6                   db     0d6h
1000:300014da 59                   db     59h     ;'Y'
1000:300014db 89                   db     89h
1000:300014dc 45                   db     45h     ;'E'
1000:300014dd e4                   db     0e4h
1000:300014de 83                   db     83h
1000:300014df f8                   db     0f8h
1000:300014e0 ff                   db     0ffh
1000:300014e1 0f                   db     0fh
1000:300014e2 85                   db     85h
1000:300014e3 c7                   db     0c7h
1000:300014e4 02                   db     02h
1000:300014e5 00                   db     00h
1000:300014e6 00                   db     00h
1000:300014e7 ff                   db     0ffh
1000:300014e8 75                   db     75h     ;'u'
1000:300014e9 08                   db     08h
1000:300014ea ff                   db     0ffh
1000:300014eb 15                   db     15h
1000:300014ec 80                   db     80h
1000:300014ed 10                   db     10h
1000:300014ee 00                   db     00h
1000:300014ef 30                   db     30h     ;'0'
1000:300014f0 59                   db     59h     ;'Y'
1000:300014f1 e8                   db     0e8h
1000:300014f2 1e                   db     1eh
1000:300014f3 00                   db     00h
1000:300014f4 00                   db     00h
1000:300014f5 00                   db     00h
1000:300014f6 c3                   db     0c3h
1000:300014f7 90                   db     90h
1000:300014f8 fe                   db     0feh
1000:300014f9 ff                   db     0ffh
1000:300014fa ff                   db     0ffh
1000:300014fb ff                   db     0ffh
1000:300014fc 00                   db     00h
1000:300014fd 00                   db     00h
1000:300014fe 00                   db     00h
1000:300014ff 00                   db     00h
1000:30001500 cc                   db     0cch
1000:30001501 ff                   db     0ffh
1000:30001502 ff                   db     0ffh
1000:30001503 ff                   db     0ffh
1000:30001504 00                   db     00h
1000:30001505 00                   db     00h
1000:30001506 00                   db     00h
1000:30001507 00                   db     00h
1000:30001508 fe                   db     0feh
1000:30001509 ff                   db     0ffh
1000:3000150a ff                   db     0ffh
1000:3000150b ff                   db     0ffh
1000:3000150c 00                   db     00h
1000:3000150d 00                   db     00h
1000:3000150e 00                   db     00h
1000:3000150f 00                   db     00h
1000:30001510 14                   db     14h
1000:30001511 18                   db     18h
1000:30001512 00                   db     00h
1000:30001513 30                   db     30h     ;'0'
1000:30001514 ;                                   XREFS First: 1000:300019b3 Number : 2
1000:30001514 loc_30001514:
1000:30001514 8b4df0               mov    ecx, [ebp-10h]
1000:30001517 64890d00000000       mov    dword ptr fs:[00h], ecx
1000:3000151e 59                   pop    ecx
1000:3000151f 5f                   pop    edi
1000:30001520 5f                   pop    edi
1000:30001521 5e                   pop    esi
1000:30001522 5b                   pop    ebx
1000:30001523 8be5                 mov    esp, ebp
1000:30001525 5d                   pop    ebp
1000:30001526 51                   push   ecx
1000:30001527 c3                   ret    
1000:30001528 ;                                   XREFS First: 1000:3000129f Number : 1
1000:30001528 loc_30001528:
1000:30001528 33c9                 xor    ecx, ecx
1000:3000152a 394de4               cmp    [ebp-1ch], ecx
1000:3000152d 0f94c1               setz   cl
1000:30001530 894de4               mov    [ebp-1ch], ecx
1000:30001533 e96dfdffff           jmp    loc_300012a5
1000:30001538 ;                                   XREFS First: 1000:30001297 Number : 1
1000:30001538 loc_30001538:
1000:30001538 84c0                 test   al, al
1000:3000153a 740a                 jz     loc_30001546
1000:3000153c 837de400             cmp    dword ptr [ebp-1ch], 00h
1000:30001540 0f8557fdffff         jnz    loc_3000129d
1000:30001546 ;                                   XREFS First: 1000:3000153a Number : 2
1000:30001546 loc_30001546:
1000:30001546 8a06                 mov    al, [esi]
1000:30001548 84c0                 test   al, al
1000:3000154a 740a                 jz     loc_30001556
1000:3000154c 3c20                 cmp    al, 20h
1000:3000154e 7706                 ja     loc_30001556
1000:30001550 46                   inc    esi
1000:30001551 8975e0               mov    [ebp-20h], esi
1000:30001554 ebf0                 jmp    loc_30001546
1000:30001556 ;                                   XREFS First: 1000:3000154a Number : 2
1000:30001556 loc_30001556:
1000:30001556 f645c401             test   byte ptr [ebp-3ch], 01h
1000:3000155a 7516                 jnz    loc_30001572
1000:3000155c 6a0a                 push   0ah
1000:3000155e 58                   pop    eax
1000:3000155f ;                                   XREFS First: 1000:30001576 Number : 1
1000:3000155f loc_3000155f:
1000:3000155f 50                   push   eax
1000:30001560 56                   push   esi
1000:30001561 6a00                 push   00h
1000:30001563 6800000030           push   offset 30000000h
1000:30001568 e816000000           call   loc_30001583
1000:3000156d e9c4030000           jmp    loc_30001936
1000:30001572 ;                                   XREFS First: 1000:3000155a Number : 1
1000:30001572 loc_30001572:
1000:30001572 0fb745c8             movzx  eax, word ptr [ebp-38h]
1000:30001576 ebe7                 jmp    loc_3000155f
1000:30001578 ;                                   XREFS First: 1000:30001226 Number : 1
1000:30001578 loc_30001578:
1000:30001578 893558300030         mov    dword ptr [loc_30003058], esi
1000:3000157e e9c8fcffff           jmp    loc_3000124b
1000:30001583 ;                                   XREFS First: 1000:30001568 Number : 1
1000:30001583 loc_30001583:
1000:30001583 55                   push   ebp
1000:30001584 8bec                 mov    ebp, esp
1000:30001586 53                   push   ebx
1000:30001587 57                   push   edi
1000:30001588 e8c1000000           call   loc_3000164e
1000:3000158d 8ad8                 mov    bl, al
1000:3000158f 84db                 test   bl, bl
1000:30001591 0f8586020000         jnz    loc_3000181d
1000:30001597 6860170030           push   offset loc_30001760
1000:3000159c ;                                   XREFS First: 1000:30001822 Number : 1
1000:3000159c loc_3000159c:
1000:3000159c ff1504100030         call   dword ptr [LoadLibraryW]
1000:300015a2 84db                 test   bl, bl
1000:300015a4 8bf8                 mov    edi, eax
1000:300015a6 7562                 jnz    loc_3000160a
1000:300015a8 85ff                 test   edi, edi
1000:300015aa 0f8477020000         jz     loc_30001827
1000:300015b0 ;                                   XREFS First: 1000:30001612 Number : 1
1000:300015b0 loc_300015b0:
1000:300015b0 56                   push   esi
1000:300015b1 8b3508100030         mov    esi, dword ptr [GetProcAddress]
1000:300015b7 6848160030           push   offset loc_30001648
1000:300015bc 57                   push   edi
1000:300015bd ffd6                 call   esi
1000:300015bf 6834160030           push   offset loc_30001634
1000:300015c4 57                   push   edi
1000:300015c5 8bd8                 mov    ebx, eax
1000:300015c7 ffd6                 call   esi
1000:300015c9 681c160030           push   offset loc_3000161c
1000:300015ce 57                   push   edi
1000:300015cf a310300030           mov    dword ptr [loc_30003010], eax
1000:300015d4 ffd6                 call   esi
1000:300015d6 85db                 test   ebx, ebx
1000:300015d8 a30c300030           mov    dword ptr [loc_3000300c], eax
1000:300015dd 5e                   pop    esi
1000:300015de 7434                 jz     loc_30001614
1000:300015e0 833d1030003000       cmp    dword ptr [loc_30003010], 00h
1000:300015e7 742b                 jz     loc_30001614
1000:300015e9 85c0                 test   eax, eax
1000:300015eb 7427                 jz     loc_30001614
1000:300015ed ff7514               push   dword ptr [ebp+14h]
1000:300015f0 ff7510               push   dword ptr [ebp+10h]
1000:300015f3 ff750c               push   dword ptr [ebp+0ch]
1000:300015f6 ff7508               push   dword ptr [ebp+08h]
1000:300015f9 ffd3                 call   ebx
1000:300015fb 57                   push   edi
1000:300015fc ff1514100030         call   dword ptr [FreeLibrary]
1000:30001602 33c0                 xor    eax, eax
1000:30001604 ;                                   XREFS First: 1000:30001617 Number : 1
1000:30001604 loc_30001604:
1000:30001604 5f                   pop    edi
1000:30001605 5b                   pop    ebx
1000:30001606 5d                   pop    ebp
1000:30001607 c21000               ret    10h
1000:3000160a ;                                   XREFS First: 1000:300015a6 Number : 2
1000:3000160a loc_3000160a:
1000:3000160a 85ff                 test   edi, edi
1000:3000160c 0f8426020000         jz     loc_30001838
1000:30001612 eb9c                 jmp    loc_300015b0
1000:30001614 ;                                   XREFS First: 1000:300015de Number : 4
1000:30001614 loc_30001614:
1000:30001614 33c0                 xor    eax, eax
1000:30001616 40                   inc    eax
1000:30001617 ebeb                 jmp    loc_30001604
1000:30001619 90                   db     90h
1000:3000161a 90                   db     90h
1000:3000161b 90                   db     90h
1000:3000161c ;                                   XREFS First: 1000:300015c9 Number : 1
1000:3000161c loc_3000161c:
1000:3000161c 77                   db     77h     ;'w'
1000:3000161d 64                   db     64h     ;'d'
1000:3000161e 47                   db     47h     ;'G'
1000:3000161f 65                   db     65h     ;'e'
1000:30001620 74                   db     74h     ;'t'
1000:30001621 41                   db     41h     ;'A'
1000:30001622 70                   db     70h     ;'p'
1000:30001623 70                   db     70h     ;'p'
1000:30001624 6c                   db     6ch     ;'l'
1000:30001625 69                   db     69h     ;'i'
1000:30001626 63                   db     63h     ;'c'
1000:30001627 61                   db     61h     ;'a'
1000:30001628 74                   db     74h     ;'t'
1000:30001629 69                   db     69h     ;'i'
1000:3000162a 6f                   db     6fh     ;'o'
1000:3000162b 6e                   db     6eh     ;'n'
1000:3000162c 4f                   db     4fh     ;'O'
1000:3000162d 62                   db     62h     ;'b'
1000:3000162e 6a                   db     6ah     ;'j'
1000:3000162f 65                   db     65h     ;'e'
1000:30001630 63                   db     63h     ;'c'
1000:30001631 74                   db     74h     ;'t'
1000:30001632 00                   db     00h
1000:30001633 90                   db     90h
1000:30001634 ;                                   XREFS First: 1000:300015bf Number : 1
1000:30001634 loc_30001634:
1000:30001634 77                   db     77h     ;'w'
1000:30001635 64                   db     64h     ;'d'
1000:30001636 43                   db     43h     ;'C'
1000:30001637 6f                   db     6fh     ;'o'
1000:30001638 6d                   db     6dh     ;'m'
1000:30001639 6d                   db     6dh     ;'m'
1000:3000163a 61                   db     61h     ;'a'
1000:3000163b 6e                   db     6eh     ;'n'
1000:3000163c 64                   db     64h     ;'d'
1000:3000163d 44                   db     44h     ;'D'
1000:3000163e 69                   db     69h     ;'i'
1000:3000163f 73                   db     73h     ;'s'
1000:30001640 70                   db     70h     ;'p'
1000:30001641 61                   db     61h     ;'a'
1000:30001642 74                   db     74h     ;'t'
1000:30001643 63                   db     63h     ;'c'
1000:30001644 68                   db     68h     ;'h'
1000:30001645 00                   db     00h
1000:30001646 90                   db     90h
1000:30001647 90                   db     90h
1000:30001648 ;                                   XREFS First: 1000:300015b7 Number : 1
1000:30001648 loc_30001648:
1000:30001648 46                   db     46h     ;'F'
1000:30001649 4d                   db     4dh     ;'M'
1000:3000164a 61                   db     61h     ;'a'
1000:3000164b 69                   db     69h     ;'i'
1000:3000164c 6e                   db     6eh     ;'n'
1000:3000164d 00                   db     00h
1000:3000164e ;                                   XREFS First: 1000:30001588 Number : 1
1000:3000164e loc_3000164e:
1000:3000164e 55                   push   ebp
1000:3000164f 8bec                 mov    ebp, esp
1000:30001651 83ec14               sub    esp, 14h
1000:30001654 53                   push   ebx
1000:30001655 56                   push   esi
1000:30001656 8b3568100030         mov    esi, dword ptr [RegOpenKeyExW]
1000:3000165c 57                   push   edi
1000:3000165d 8d45fc               lea    eax, [ebp-04h]
1000:30001660 50                   push   eax
1000:30001661 6a01                 push   01h
1000:30001663 6a00                 push   00h
1000:30001665 6818170030           push   offset loc_30001718
1000:3000166a 6801000080           push   80000001h
1000:3000166f c745f004000000       mov    dword ptr [ebp-10h], 04h
1000:30001676 ffd6                 call   esi
1000:30001678 85c0                 test   eax, eax
1000:3000167a 8b3d60100030         mov    edi, dword ptr [RegQueryValueExW]
1000:30001680 8b1d64100030         mov    ebx, dword ptr [RegCloseKey]
1000:30001686 7530                 jnz    loc_300016b8
1000:30001688 837dfc00             cmp    dword ptr [ebp-04h], 00h
1000:3000168c 742a                 jz     loc_300016b8
1000:3000168e 8d45f0               lea    eax, [ebp-10h]
1000:30001691 50                   push   eax
1000:30001692 8d45f4               lea    eax, [ebp-0ch]
1000:30001695 50                   push   eax
1000:30001696 8d45f8               lea    eax, [ebp-08h]
1000:30001699 50                   push   eax
1000:3000169a 6a00                 push   00h
1000:3000169c 6804170030           push   offset loc_30001704
1000:300016a1 ff75fc               push   dword ptr [ebp-04h]
1000:300016a4 ffd7                 call   edi
1000:300016a6 ff75fc               push   dword ptr [ebp-04h]
1000:300016a9 8945ec               mov    [ebp-14h], eax
1000:300016ac ffd3                 call   ebx
1000:300016ae 837dec00             cmp    dword ptr [ebp-14h], 00h
1000:300016b2 0f84fa010000         jz     loc_300018b2
1000:300016b8 ;                                   XREFS First: 1000:30001686 Number : 3
1000:300016b8 loc_300016b8:
1000:300016b8 8d45fc               lea    eax, [ebp-04h]
1000:300016bb 50                   push   eax
1000:300016bc 6a01                 push   01h
1000:300016be 6a00                 push   00h
1000:300016c0 6818170030           push   offset loc_30001718
1000:300016c5 6802000080           push   80000002h
1000:300016ca ffd6                 call   esi
1000:300016cc 85c0                 test   eax, eax
1000:300016ce 752c                 jnz    loc_300016fc
1000:300016d0 3945fc               cmp    [ebp-04h], eax
1000:300016d3 7427                 jz     loc_300016fc
1000:300016d5 8d45f0               lea    eax, [ebp-10h]
1000:300016d8 50                   push   eax
1000:300016d9 8d45f4               lea    eax, [ebp-0ch]
1000:300016dc 50                   push   eax
1000:300016dd 8d45f8               lea    eax, [ebp-08h]
1000:300016e0 50                   push   eax
1000:300016e1 6a00                 push   00h
1000:300016e3 6804170030           push   offset loc_30001704
1000:300016e8 ff75fc               push   dword ptr [ebp-04h]
1000:300016eb ffd7                 call   edi
1000:300016ed ff75fc               push   dword ptr [ebp-04h]
1000:300016f0 8bf0                 mov    esi, eax
1000:300016f2 ffd3                 call   ebx
1000:300016f4 85f6                 test   esi, esi
1000:300016f6 0f84cd010000         jz     loc_300018c9
1000:300016fc ;                                   XREFS First: 1000:300016ce Number : 3
1000:300016fc loc_300016fc:
1000:300016fc 32c0                 xor    al, al
1000:300016fe ;                                   XREFS First: 1000:300018c4 Number : 1
1000:300016fe loc_300016fe:
1000:300016fe 5f                   pop    edi
1000:300016ff 5e                   pop    esi
1000:30001700 5b                   pop    ebx
1000:30001701 c9                   leave  
1000:30001702 c3                   ret    
1000:30001703 90                   db     90h
1000:30001704 ;                                   XREFS First: 1000:3000169c Number : 2
1000:30001704 loc_30001704:
1000:30001704 43                   db     43h     ;'C'
1000:30001705 00                   db     00h
1000:30001706 78                   db     78h     ;'x'
1000:30001707 00                   db     00h
1000:30001708 6d                   db     6dh     ;'m'
1000:30001709 00                   db     00h
1000:3000170a 44                   db     44h     ;'D'
1000:3000170b 00                   db     00h
1000:3000170c 6c                   db     6ch     ;'l'
1000:3000170d 00                   db     00h
1000:3000170e 6c                   db     6ch     ;'l'
1000:3000170f 00                   db     00h
1000:30001710 00                   db     00h
1000:30001711 00                   db     00h
1000:30001712 90                   db     90h
1000:30001713 90                   db     90h
1000:30001714 90                   db     90h
1000:30001715 90                   db     90h
1000:30001716 90                   db     90h
1000:30001717 90                   db     90h
1000:30001718 ;                                   XREFS First: 1000:30001665 Number : 2
1000:30001718 loc_30001718:
1000:30001718 53                   db     53h     ;'S'
1000:30001719 00                   db     00h
1000:3000171a 6f                   db     6fh     ;'o'
1000:3000171b 00                   db     00h
1000:3000171c 66                   db     66h     ;'f'
1000:3000171d 00                   db     00h
1000:3000171e 74                   db     74h     ;'t'
1000:3000171f 00                   db     00h
1000:30001720 77                   db     77h     ;'w'
1000:30001721 00                   db     00h
1000:30001722 61                   db     61h     ;'a'
1000:30001723 00                   db     00h
1000:30001724 72                   db     72h     ;'r'
1000:30001725 00                   db     00h
1000:30001726 65                   db     65h     ;'e'
1000:30001727 00                   db     00h
1000:30001728 5c                   db     5ch     ;'\'
1000:30001729 00                   db     00h
1000:3000172a 4d                   db     4dh     ;'M'
1000:3000172b 00                   db     00h
1000:3000172c 69                   db     69h     ;'i'
1000:3000172d 00                   db     00h
1000:3000172e 63                   db     63h     ;'c'
1000:3000172f 00                   db     00h
1000:30001730 72                   db     72h     ;'r'
1000:30001731 00                   db     00h
1000:30001732 6f                   db     6fh     ;'o'
1000:30001733 00                   db     00h
1000:30001734 73                   db     73h     ;'s'
1000:30001735 00                   db     00h
1000:30001736 6f                   db     6fh     ;'o'
1000:30001737 00                   db     00h
1000:30001738 66                   db     66h     ;'f'
1000:30001739 00                   db     00h
1000:3000173a 74                   db     74h     ;'t'
1000:3000173b 00                   db     00h
1000:3000173c 5c                   db     5ch     ;'\'
1000:3000173d 00                   db     00h
1000:3000173e 4f                   db     4fh     ;'O'
1000:3000173f 00                   db     00h
1000:30001740 66                   db     66h     ;'f'
1000:30001741 00                   db     00h
1000:30001742 66                   db     66h     ;'f'
1000:30001743 00                   db     00h
1000:30001744 69                   db     69h     ;'i'
1000:30001745 00                   db     00h
1000:30001746 63                   db     63h     ;'c'
1000:30001747 00                   db     00h
1000:30001748 65                   db     65h     ;'e'
1000:30001749 00                   db     00h
1000:3000174a 5c                   db     5ch     ;'\'
1000:3000174b 00                   db     00h
1000:3000174c 31                   db     31h     ;'1'
1000:3000174d 00                   db     00h
1000:3000174e 32                   db     32h     ;'2'
1000:3000174f 00                   db     00h
1000:30001750 2e                   db     2eh     ;'.'
1000:30001751 00                   db     00h
1000:30001752 30                   db     30h     ;'0'
1000:30001753 00                   db     00h
1000:30001754 5c                   db     5ch     ;'\'
1000:30001755 00                   db     00h
1000:30001756 57                   db     57h     ;'W'
1000:30001757 00                   db     00h
1000:30001758 6f                   db     6fh     ;'o'
1000:30001759 00                   db     00h
1000:3000175a 72                   db     72h     ;'r'
1000:3000175b 00                   db     00h
1000:3000175c 64                   db     64h     ;'d'
1000:3000175d 00                   db     00h
1000:3000175e 00                   db     00h
1000:3000175f 00                   db     00h
1000:30001760 ;                                   XREFS First: 1000:30001597 Number : 2
1000:30001760 loc_30001760:
1000:30001760 77                   db     77h     ;'w'
1000:30001761 00                   db     00h
1000:30001762 77                   db     77h     ;'w'
1000:30001763 00                   db     00h
1000:30001764 6c                   db     6ch     ;'l'
1000:30001765 00                   db     00h
1000:30001766 69                   db     69h     ;'i'
1000:30001767 00                   db     00h
1000:30001768 62                   db     62h     ;'b'
1000:30001769 00                   db     00h
1000:3000176a 2e                   db     2eh     ;'.'
1000:3000176b 00                   db     00h
1000:3000176c 64                   db     64h     ;'d'
1000:3000176d 00                   db     00h
1000:3000176e 6c                   db     6ch     ;'l'
1000:3000176f 00                   db     00h
1000:30001770 6c                   db     6ch     ;'l'
1000:30001771 00                   db     00h
1000:30001772 00                   db     00h
1000:30001773 00                   db     00h
1000:30001774 ;                                   XREFS First: 1000:30001163 Number : 7
1000:30001774 loc_30001774:
1000:30001774 4e                   db     4eh     ;'N'
1000:30001775 e6                   db     0e6h
1000:30001776 40                   db     40h     ;'@'
1000:30001777 bb                   db     0bbh
1000:30001778 ;                                   XREFS First: 1000:30001173 Number : 1
1000:30001778 loc_30001778:
1000:30001778 c705741700304ee640bb mov    dword ptr [loc_30001774], 0bb40e64eh
1000:30001782 e9f2f9ffff           jmp    loc_30001179
1000:30001787 8b                   db     8bh
1000:30001788 06                   db     06h
1000:30001789 85                   db     85h
1000:3000178a c0                   db     0c0h
1000:3000178b 74                   db     74h     ;'t'
1000:3000178c 02                   db     02h
1000:3000178d ff                   db     0ffh
1000:3000178e d0                   db     0d0h
1000:3000178f 83                   db     83h
1000:30001790 c6                   db     0c6h
1000:30001791 04                   db     04h
1000:30001792 3b                   db     3bh     ;';'
1000:30001793 f7                   db     0f7h
1000:30001794 0f                   db     0fh
1000:30001795 83                   db     83h
1000:30001796 91                   db     91h
1000:30001797 fc                   db     0fch
1000:30001798 ff                   db     0ffh
1000:30001799 ff                   db     0ffh
1000:3000179a eb                   db     0ebh
1000:3000179b eb                   db     0ebh
1000:3000179c 56                   db     56h     ;'V'
1000:3000179d 56                   db     56h     ;'V'
1000:3000179e 56                   db     56h     ;'V'
1000:3000179f 56                   db     56h     ;'V'
1000:300017a0 56                   db     56h     ;'V'
1000:300017a1 e8                   db     0e8h
1000:300017a2 17                   db     17h
1000:300017a3 08                   db     08h
1000:300017a4 00                   db     00h
1000:300017a5 00                   db     00h
1000:300017a6 83                   db     83h
1000:300017a7 c4                   db     0c4h
1000:300017a8 14                   db     14h
1000:300017a9 e9                   db     0e9h
1000:300017aa ab                   db     0abh
1000:300017ab fc                   db     0fch
1000:300017ac ff                   db     0ffh
1000:300017ad ff                   db     0ffh
1000:300017ae 6a                   db     6ah     ;'j'
1000:300017af 08                   db     08h
1000:300017b0 e8                   db     0e8h
1000:300017b1 fc                   db     0fch
1000:300017b2 07                   db     07h
1000:300017b3 00                   db     00h
1000:300017b4 00                   db     00h
1000:300017b5 59                   db     59h     ;'Y'
1000:300017b6 83                   db     83h
1000:300017b7 65                   db     65h     ;'e'
1000:300017b8 fc                   db     0fch
1000:300017b9 00                   db     00h
1000:300017ba ff                   db     0ffh
1000:300017bb 35                   db     35h     ;'5'
1000:300017bc 4c                   db     4ch     ;'L'
1000:300017bd 30                   db     30h     ;'0'
1000:300017be 00                   db     00h
1000:300017bf 30                   db     30h     ;'0'
1000:300017c0 ff                   db     0ffh
1000:300017c1 d6                   db     0d6h
1000:300017c2 89                   db     89h
1000:300017c3 45                   db     45h     ;'E'
1000:300017c4 e4                   db     0e4h
1000:300017c5 ff                   db     0ffh
1000:300017c6 35                   db     35h     ;'5'
1000:300017c7 48                   db     48h     ;'H'
1000:300017c8 30                   db     30h     ;'0'
1000:300017c9 00                   db     00h
1000:300017ca 30                   db     30h     ;'0'
1000:300017cb ff                   db     0ffh
1000:300017cc d6                   db     0d6h
1000:300017cd 89                   db     89h
1000:300017ce 45                   db     45h     ;'E'
1000:300017cf e0                   db     0e0h
1000:300017d0 8d                   db     8dh
1000:300017d1 45                   db     45h     ;'E'
1000:300017d2 e0                   db     0e0h
1000:300017d3 50                   db     50h     ;'P'
1000:300017d4 8d                   db     8dh
1000:300017d5 45                   db     45h     ;'E'
1000:300017d6 e4                   db     0e4h
1000:300017d7 50                   db     50h     ;'P'
1000:300017d8 ff                   db     0ffh
1000:300017d9 75                   db     75h     ;'u'
1000:300017da 08                   db     08h
1000:300017db e8                   db     0e8h
1000:300017dc cb                   db     0cbh
1000:300017dd 07                   db     07h
1000:300017de 00                   db     00h
1000:300017df 00                   db     00h
1000:300017e0 89                   db     89h
1000:300017e1 45                   db     45h     ;'E'
1000:300017e2 dc                   db     0dch
1000:300017e3 ff                   db     0ffh
1000:300017e4 75                   db     75h     ;'u'
1000:300017e5 e4                   db     0e4h
1000:300017e6 8b                   db     8bh
1000:300017e7 35                   db     35h     ;'5'
1000:300017e8 94                   db     94h
1000:300017e9 10                   db     10h
1000:300017ea 00                   db     00h
1000:300017eb 30                   db     30h     ;'0'
1000:300017ec ff                   db     0ffh
1000:300017ed d6                   db     0d6h
1000:300017ee a3                   db     0a3h
1000:300017ef 4c                   db     4ch     ;'L'
1000:300017f0 30                   db     30h     ;'0'
1000:300017f1 00                   db     00h
1000:300017f2 30                   db     30h     ;'0'
1000:300017f3 ff                   db     0ffh
1000:300017f4 75                   db     75h     ;'u'
1000:300017f5 e0                   db     0e0h
1000:300017f6 ff                   db     0ffh
1000:300017f7 d6                   db     0d6h
1000:300017f8 83                   db     83h
1000:300017f9 c4                   db     0c4h
1000:300017fa 1c                   db     1ch
1000:300017fb a3                   db     0a3h
1000:300017fc 48                   db     48h     ;'H'
1000:300017fd 30                   db     30h     ;'0'
1000:300017fe 00                   db     00h
1000:300017ff 30                   db     30h     ;'0'
1000:30001800 c7                   db     0c7h
1000:30001801 45                   db     45h     ;'E'
1000:30001802 fc                   db     0fch
1000:30001803 fe                   db     0feh
1000:30001804 ff                   db     0ffh
1000:30001805 ff                   db     0ffh
1000:30001806 ff                   db     0ffh
1000:30001807 e8                   db     0e8h
1000:30001808 08                   db     08h
1000:30001809 00                   db     00h
1000:3000180a 00                   db     00h
1000:3000180b 00                   db     00h
1000:3000180c 8b                   db     8bh
1000:3000180d 45                   db     45h     ;'E'
1000:3000180e dc                   db     0dch
1000:3000180f e9                   db     0e9h
1000:30001810 dd                   db     0ddh
1000:30001811 fc                   db     0fch
1000:30001812 ff                   db     0ffh
1000:30001813 ff                   db     0ffh
1000:30001814 6a                   db     6ah     ;'j'
1000:30001815 08                   db     08h
1000:30001816 e8                   db     0e8h
1000:30001817 8a                   db     8ah
1000:30001818 07                   db     07h
1000:30001819 00                   db     00h
1000:3000181a 00                   db     00h
1000:3000181b 59                   db     59h     ;'Y'
1000:3000181c c3                   db     0c3h
1000:3000181d ;                                   XREFS First: 1000:30001591 Number : 1
1000:3000181d loc_3000181d:
1000:3000181d 6898180030           push   offset loc_30001898
1000:30001822 e975fdffff           jmp    loc_3000159c
1000:30001827 ;                                   XREFS First: 1000:300015aa Number : 1
1000:30001827 loc_30001827:
1000:30001827 6848180030           push   offset loc_30001848
1000:3000182c e8bf020000           call   loc_30001af0
1000:30001831 8bf8                 mov    edi, eax
1000:30001833 e9d2fdffff           jmp    loc_3000160a
1000:30001838 ;                                   XREFS First: 1000:3000160c Number : 1
1000:30001838 loc_30001838:
1000:30001838 ff150c100030         call   dword ptr [GetLastError]
1000:3000183e e9d1fdffff           jmp    loc_30001614
1000:30001843 90                   db     90h
1000:30001844 90                   db     90h
1000:30001845 90                   db     90h
1000:30001846 90                   db     90h
1000:30001847 90                   db     90h
1000:30001848 ;                                   XREFS First: 1000:30001827 Number : 1
1000:30001848 loc_30001848:
1000:30001848 7b                   db     7bh     ;'{'
1000:30001849 00                   db     00h
1000:3000184a 30                   db     30h     ;'0'
1000:3000184b 00                   db     00h
1000:3000184c 36                   db     36h     ;'6'
1000:3000184d 00                   db     00h
1000:3000184e 33                   db     33h     ;'3'
1000:3000184f 00                   db     00h
1000:30001850 38                   db     38h     ;'8'
1000:30001851 00                   db     00h
1000:30001852 43                   db     43h     ;'C'
1000:30001853 00                   db     00h
1000:30001854 34                   db     34h     ;'4'
1000:30001855 00                   db     00h
1000:30001856 39                   db     39h     ;'9'
1000:30001857 00                   db     00h
1000:30001858 44                   db     44h     ;'D'
1000:30001859 00                   db     00h
1000:3000185a 2d                   db     2dh     ;'-'
1000:3000185b 00                   db     00h
1000:3000185c 42                   db     42h     ;'B'
1000:3000185d 00                   db     00h
1000:3000185e 42                   db     42h     ;'B'
1000:3000185f 00                   db     00h
1000:30001860 38                   db     38h     ;'8'
1000:30001861 00                   db     00h
1000:30001862 42                   db     42h     ;'B'
1000:30001863 00                   db     00h
1000:30001864 2d                   db     2dh     ;'-'
1000:30001865 00                   db     00h
1000:30001866 34                   db     34h     ;'4'
1000:30001867 00                   db     00h
1000:30001868 43                   db     43h     ;'C'
1000:30001869 00                   db     00h
1000:3000186a 44                   db     44h     ;'D'
1000:3000186b 00                   db     00h
1000:3000186c 31                   db     31h     ;'1'
1000:3000186d 00                   db     00h
1000:3000186e 2d                   db     2dh     ;'-'
1000:3000186f 00                   db     00h
1000:30001870 42                   db     42h     ;'B'
1000:30001871 00                   db     00h
1000:30001872 31                   db     31h     ;'1'
1000:30001873 00                   db     00h
1000:30001874 39                   db     39h     ;'9'
1000:30001875 00                   db     00h
1000:30001876 31                   db     31h     ;'1'
1000:30001877 00                   db     00h
1000:30001878 2d                   db     2dh     ;'-'
1000:30001879 00                   db     00h
1000:3000187a 30                   db     30h     ;'0'
1000:3000187b 00                   db     00h
1000:3000187c 35                   db     35h     ;'5'
1000:3000187d 00                   db     00h
1000:3000187e 31                   db     31h     ;'1'
1000:3000187f 00                   db     00h
1000:30001880 45                   db     45h     ;'E'
1000:30001881 00                   db     00h
1000:30001882 38                   db     38h     ;'8'
1000:30001883 00                   db     00h
1000:30001884 46                   db     46h     ;'F'
1000:30001885 00                   db     00h
1000:30001886 33                   db     33h     ;'3'
1000:30001887 00                   db     00h
1000:30001888 32                   db     32h     ;'2'
1000:30001889 00                   db     00h
1000:3000188a 35                   db     35h     ;'5'
1000:3000188b 00                   db     00h
1000:3000188c 37                   db     37h     ;'7'
1000:3000188d 00                   db     00h
1000:3000188e 33                   db     33h     ;'3'
1000:3000188f 00                   db     00h
1000:30001890 36                   db     36h     ;'6'
1000:30001891 00                   db     00h
1000:30001892 7d                   db     7dh     ;'}'
1000:30001893 00                   db     00h
1000:30001894 00                   db     00h
1000:30001895 00                   db     00h
1000:30001896 90                   db     90h
1000:30001897 90                   db     90h
1000:30001898 ;                                   XREFS First: 1000:3000181d Number : 1
1000:30001898 loc_30001898:
1000:30001898 77                   db     77h     ;'w'
1000:30001899 00                   db     00h
1000:3000189a 77                   db     77h     ;'w'
1000:3000189b 00                   db     00h
1000:3000189c 6c                   db     6ch     ;'l'
1000:3000189d 00                   db     00h
1000:3000189e 69                   db     69h     ;'i'
1000:3000189f 00                   db     00h
1000:300018a0 62                   db     62h     ;'b'
1000:300018a1 00                   db     00h
1000:300018a2 63                   db     63h     ;'c'
1000:300018a3 00                   db     00h
1000:300018a4 78                   db     78h     ;'x'
1000:300018a5 00                   db     00h
1000:300018a6 6d                   db     6dh     ;'m'
1000:300018a7 00                   db     00h
1000:300018a8 2e                   db     2eh     ;'.'
1000:300018a9 00                   db     00h
1000:300018aa 64                   db     64h     ;'d'
1000:300018ab 00                   db     00h
1000:300018ac 6c                   db     6ch     ;'l'
1000:300018ad 00                   db     00h
1000:300018ae 6c                   db     6ch     ;'l'
1000:300018af 00                   db     00h
1000:300018b0 00                   db     00h
1000:300018b1 00                   db     00h
1000:300018b2 ;                                   XREFS First: 1000:300016b2 Number : 1
1000:300018b2 loc_300018b2:
1000:300018b2 837df804             cmp    dword ptr [ebp-08h], 04h
1000:300018b6 0f85fcfdffff         jnz    loc_300016b8
1000:300018bc 33c0                 xor    eax, eax
1000:300018be 3945f4               cmp    [ebp-0ch], eax
1000:300018c1 ;                                   XREFS First: 1000:300018d8 Number : 1
1000:300018c1 loc_300018c1:
1000:300018c1 0f95c0               setnz  al
1000:300018c4 e935feffff           jmp    loc_300016fe
1000:300018c9 ;                                   XREFS First: 1000:300016f6 Number : 1
1000:300018c9 loc_300018c9:
1000:300018c9 837df804             cmp    dword ptr [ebp-08h], 04h
1000:300018cd 0f8529feffff         jnz    loc_300016fc
1000:300018d3 33c0                 xor    eax, eax
1000:300018d5 3945f4               cmp    [ebp-0ch], eax
1000:300018d8 ebe7                 jmp    loc_300018c1
1000:300018da 6a                   db     6ah     ;'j'
1000:300018db 08                   db     08h
1000:300018dc e8                   db     0e8h
1000:300018dd 6b                   db     6bh     ;'k'
1000:300018de 05                   db     05h
1000:300018df 00                   db     00h
1000:300018e0 00                   db     00h
1000:300018e1 59                   db     59h     ;'Y'
1000:300018e2 e9                   db     0e9h
1000:300018e3 c6                   db     0c6h
1000:300018e4 fb                   db     0fbh
1000:300018e5 ff                   db     0ffh
1000:300018e6 ff                   db     0ffh
1000:300018e7 ;                                   XREFS First: 1000:30001209 Number : 1
1000:300018e7 loc_300018e7:
1000:300018e7 3bc6                 cmp    eax, esi
1000:300018e9 750a                 jnz    loc_300018f5
1000:300018eb 33f6                 xor    esi, esi
1000:300018ed 46                   inc    esi
1000:300018ee 8bde                 mov    ebx, esi
1000:300018f0 e91df9ffff           jmp    loc_30001212
1000:300018f5 ;                                   XREFS First: 1000:300018e9 Number : 1
1000:300018f5 loc_300018f5:
1000:300018f5 68e8030000           push   3e8h
1000:300018fa ff1530100030         call   dword ptr [Sleep]
1000:30001900 e9f8f8ffff           jmp    loc_300011fd
1000:30001905 ;                                   XREFS First: 1000:30001219 Number : 1
1000:30001905 loc_30001905:
1000:30001905 6a1f                 push   1fh
1000:30001907 e840050000           call   __amsg_exit
1000:3000190c 59                   pop    ecx
1000:3000190d e939f9ffff           jmp    loc_3000124b
1000:30001912 ;                                   XREFS First: 1000:30001282 Number : 1
1000:30001912 loc_30001912:
1000:30001912 6850300030           push   offset loc_30003050
1000:30001917 e8d5050000           call   loc_30001ef1
1000:3000191c 59                   pop    ecx
1000:3000191d 85c0                 test   eax, eax
1000:3000191f 0f8463f9ffff         jz     loc_30001288
1000:30001925 6a00                 push   00h
1000:30001927 6a02                 push   02h
1000:30001929 6a00                 push   00h
1000:3000192b ff1550300030         call   dword ptr [loc_30003050]
1000:30001931 e952f9ffff           jmp    loc_30001288
1000:30001936 ;                                   XREFS First: 1000:3000156d Number : 1
1000:30001936 loc_30001936:
1000:30001936 a354300030           mov    dword ptr [loc_30003054], eax
1000:3000193b 833d2030003000       cmp    dword ptr [loc_30003020], 00h
1000:30001942 753f                 jnz    loc_30001983
1000:30001944 50                   push   eax
1000:30001945 ff15b8100030         call   dword ptr [exit]
1000:3000194b ;                                   XREFS First: 1000:300012b2 Number : 1
1000:3000194b loc_3000194b:
1000:3000194b 46                   inc    esi
1000:3000194c 8975e0               mov    [ebp-20h], esi
1000:3000194f e964f9ffff           jmp    loc_300012b8
1000:30001954 8b                   db     8bh
1000:30001955 45                   db     45h     ;'E'
1000:30001956 ec                   db     0ech
1000:30001957 8b                   db     8bh
1000:30001958 08                   db     08h
1000:30001959 8b                   db     8bh
1000:3000195a 09                   db     09h
1000:3000195b 89                   db     89h
1000:3000195c 4d                   db     4dh     ;'M'
1000:3000195d dc                   db     0dch
1000:3000195e 50                   db     50h     ;'P'
1000:3000195f 51                   db     51h     ;'Q'
1000:30001960 e8                   db     0e8h
1000:30001961 1b                   db     1bh
1000:30001962 05                   db     05h
1000:30001963 00                   db     00h
1000:30001964 00                   db     00h
1000:30001965 59                   db     59h     ;'Y'
1000:30001966 59                   db     59h     ;'Y'
1000:30001967 c3                   db     0c3h
1000:30001968 8b                   db     8bh
1000:30001969 65                   db     65h     ;'e'
1000:3000196a e8                   db     0e8h
1000:3000196b 8b                   db     8bh
1000:3000196c 45                   db     45h     ;'E'
1000:3000196d dc                   db     0dch
1000:3000196e a3                   db     0a3h
1000:3000196f 54                   db     54h     ;'T'
1000:30001970 30                   db     30h     ;'0'
1000:30001971 00                   db     00h
1000:30001972 30                   db     30h     ;'0'
1000:30001973 83                   db     83h
1000:30001974 3d                   db     3dh     ;'='
1000:30001975 20                   db     20h     ;' '
1000:30001976 30                   db     30h     ;'0'
1000:30001977 00                   db     00h
1000:30001978 30                   db     30h     ;'0'
1000:30001979 00                   db     00h
1000:3000197a 75                   db     75h     ;'u'
1000:3000197b 07                   db     07h
1000:3000197c 50                   db     50h     ;'P'
1000:3000197d ff                   db     0ffh
1000:3000197e 15                   db     15h
1000:3000197f c4                   db     0c4h
1000:30001980 10                   db     10h
1000:30001981 00                   db     00h
1000:30001982 30                   db     30h     ;'0'
1000:30001983 ;                                   XREFS First: 1000:30001942 Number : 1
1000:30001983 loc_30001983:
1000:30001983 833d5830003000       cmp    dword ptr [loc_30003058], 00h
1000:3000198a 7506                 jnz    loc_30001992
1000:3000198c ff15c8100030         call   dword ptr [_cexit]
1000:30001992 ;                                   XREFS First: 1000:3000198a Number : 1
1000:30001992 loc_30001992:
1000:30001992 c745fcfeffffff       mov    dword ptr [ebp-04h], 0fffffffeh
1000:30001999 a154300030           mov    eax, dword ptr [loc_30003054]
1000:3000199e eb13                 jmp    loc_300019b3
1000:300019a0 33                   db     33h     ;'3'
1000:300019a1 c0                   db     0c0h
1000:300019a2 40                   db     40h     ;'@'
1000:300019a3 c3                   db     0c3h
1000:300019a4 8b                   db     8bh
1000:300019a5 65                   db     65h     ;'e'
1000:300019a6 e8                   db     0e8h
1000:300019a7 ;                                   XREFS First: 1000:30001245 Number : 1
1000:300019a7 loc_300019a7:
1000:300019a7 c745fcfeffffff       mov    dword ptr [ebp-04h], 0fffffffeh
1000:300019ae b8ff000000           mov    eax, 0ffh
1000:300019b3 ;                                   XREFS First: 1000:3000199e Number : 1
1000:300019b3 loc_300019b3:
1000:300019b3 e85cfbffff           call   loc_30001514
1000:300019b8 c3                   ret    
1000:300019b9 81                   db     81h
1000:300019ba f9                   db     0f9h
1000:300019bb 0b                   db     0bh
1000:300019bc 02                   db     02h
1000:300019bd 00                   db     00h
1000:300019be 00                   db     00h
1000:300019bf 0f                   db     0fh
1000:300019c0 85                   db     85h
1000:300019c1 4c                   db     4ch     ;'L'
1000:300019c2 fa                   db     0fah
1000:300019c3 ff                   db     0ffh
1000:300019c4 ff                   db     0ffh
1000:300019c5 83                   db     83h
1000:300019c6 b8                   db     0b8h
1000:300019c7 84                   db     84h
1000:300019c8 00                   db     00h
1000:300019c9 00                   db     00h
1000:300019ca 30                   db     30h     ;'0'
1000:300019cb 0e                   db     0eh
1000:300019cc 0f                   db     0fh
1000:300019cd 86                   db     86h
1000:300019ce 3f                   db     3fh     ;'?'
1000:300019cf fa                   db     0fah
1000:300019d0 ff                   db     0ffh
1000:300019d1 ff                   db     0ffh
1000:300019d2 33                   db     33h     ;'3'
1000:300019d3 c9                   db     0c9h
1000:300019d4 39                   db     39h     ;'9'
1000:300019d5 88                   db     88h
1000:300019d6 f8                   db     0f8h
1000:300019d7 00                   db     00h
1000:300019d8 00                   db     00h
1000:300019d9 30                   db     30h     ;'0'
1000:300019da e9                   db     0e9h
1000:300019db b8                   db     0b8h
1000:300019dc f9                   db     0f9h
1000:300019dd ff                   db     0ffh
1000:300019de ff                   db     0ffh
1000:300019df 68                   db     68h     ;'h'
1000:300019e0 38                   db     38h     ;'8'
1000:300019e1 14                   db     14h
1000:300019e2 00                   db     00h
1000:300019e3 30                   db     30h     ;'0'
1000:300019e4 ff                   db     0ffh
1000:300019e5 15                   db     15h
1000:300019e6 a4                   db     0a4h
1000:300019e7 10                   db     10h
1000:300019e8 00                   db     00h
1000:300019e9 30                   db     30h     ;'0'
1000:300019ea 59                   db     59h     ;'Y'
1000:300019eb e9                   db     0e9h
1000:300019ec 0c                   db     0ch
1000:300019ed fa                   db     0fah
1000:300019ee ff                   db     0ffh
1000:300019ef ff                   db     0ffh
1000:300019f0 6a                   db     6ah     ;'j'
1000:300019f1 ff                   db     0ffh
1000:300019f2 ff                   db     0ffh
1000:300019f3 15                   db     15h
1000:300019f4 a8                   db     0a8h
1000:300019f5 10                   db     10h
1000:300019f6 00                   db     00h
1000:300019f7 30                   db     30h     ;'0'
1000:300019f8 59                   db     59h     ;'Y'
1000:300019f9 e9                   db     0e9h
1000:300019fa 10                   db     10h
1000:300019fb fa                   db     0fah
1000:300019fc ff                   db     0ffh
1000:300019fd ff                   db     0ffh
1000:300019fe 90                   db     90h
1000:300019ff 90                   db     90h
1000:30001a00 48                   db     48h     ;'H'
1000:30001a01 00                   db     00h
1000:30001a02 00                   db     00h
1000:30001a03 00                   db     00h
1000:30001a04 00                   db     00h
1000:30001a05 00                   db     00h
1000:30001a06 00                   db     00h
1000:30001a07 00                   db     00h
1000:30001a08 00                   db     00h
1000:30001a09 00                   db     00h
1000:30001a0a 00                   db     00h
1000:30001a0b 00                   db     00h
1000:30001a0c 00                   db     00h
1000:30001a0d 00                   db     00h
1000:30001a0e 00                   db     00h
1000:30001a0f 00                   db     00h
1000:30001a10 00                   db     00h
1000:30001a11 00                   db     00h
1000:30001a12 00                   db     00h
1000:30001a13 00                   db     00h
1000:30001a14 00                   db     00h
1000:30001a15 00                   db     00h
1000:30001a16 00                   db     00h
1000:30001a17 00                   db     00h
1000:30001a18 00                   db     00h
1000:30001a19 00                   db     00h
1000:30001a1a 00                   db     00h
1000:30001a1b 00                   db     00h
1000:30001a1c 00                   db     00h
1000:30001a1d 00                   db     00h
1000:30001a1e 00                   db     00h
1000:30001a1f 00                   db     00h
1000:30001a20 00                   db     00h
1000:30001a21 00                   db     00h
1000:30001a22 00                   db     00h
1000:30001a23 00                   db     00h
1000:30001a24 00                   db     00h
1000:30001a25 00                   db     00h
1000:30001a26 00                   db     00h
1000:30001a27 00                   db     00h
1000:30001a28 00                   db     00h
1000:30001a29 00                   db     00h
1000:30001a2a 00                   db     00h
1000:30001a2b 00                   db     00h
1000:30001a2c 00                   db     00h
1000:30001a2d 00                   db     00h
1000:30001a2e 00                   db     00h
1000:30001a2f 00                   db     00h
1000:30001a30 00                   db     00h
1000:30001a31 00                   db     00h
1000:30001a32 00                   db     00h
1000:30001a33 00                   db     00h
1000:30001a34 00                   db     00h
1000:30001a35 00                   db     00h
1000:30001a36 00                   db     00h
1000:30001a37 00                   db     00h
1000:30001a38 00                   db     00h
1000:30001a39 00                   db     00h
1000:30001a3a 00                   db     00h
1000:30001a3b 00                   db     00h
1000:30001a3c 00                   db     00h
1000:30001a3d 00                   db     00h
1000:30001a3e 00                   db     00h
1000:30001a3f 00                   db     00h
1000:30001a40 48                   db     48h     ;'H'
1000:30001a41 1a                   db     1ah
1000:30001a42 00                   db     00h
1000:30001a43 30                   db     30h     ;'0'
1000:30001a44 01                   db     01h
1000:30001a45 00                   db     00h
1000:30001a46 00                   db     00h
1000:30001a47 00                   db     00h
1000:30001a48 7c                   db     7ch     ;'|'
1000:30001a49 1f                   db     1fh
1000:30001a4a 00                   db     00h
1000:30001a4b 00                   db     00h
1000:30001a4c wdCommandDispatch:
1000:30001a4c 55                   push   ebp
1000:30001a4d 8bec                 mov    ebp, esp
1000:30001a4f 5d                   pop    ebp
1000:30001a50 ff2510300030         jmp    dword ptr [loc_30003010]
1000:30001a56 wdGetApplicationObject:
1000:30001a56 ff250c300030         jmp    dword ptr [loc_3000300c]
1000:30001a5c ;                                   XREFS First: 1000:30001b62 Number : 1
1000:30001a5c loc_30001a5c:
1000:30001a5c 55                   push   ebp
1000:30001a5d 8bec                 mov    ebp, esp
1000:30001a5f 53                   push   ebx
1000:30001a60 56                   push   esi
1000:30001a61 8b750c               mov    esi, [ebp+0ch]
1000:30001a64 85f6                 test   esi, esi
1000:30001a66 57                   push   edi
1000:30001a67 8b7d08               mov    edi, [ebp+08h]
1000:30001a6a 7408                 jz     loc_30001a74
1000:30001a6c 81feffffff7f         cmp    esi, 7fffffffh
1000:30001a72 7657                 jbe    loc_30001acb
1000:30001a74 ;                                   XREFS First: 1000:30001a6a Number : 1
1000:30001a74 loc_30001a74:
1000:30001a74 b857000780           mov    eax, 80070057h
1000:30001a79 33c9                 xor    ecx, ecx
1000:30001a7b ;                                   XREFS First: 1000:30001aee Number : 1
1000:30001a7b loc_30001a7b:
1000:30001a7b 85c0                 test   eax, eax
1000:30001a7d 7c45                 jl     loc_30001ac4
1000:30001a7f 8bd6                 mov    edx, esi
1000:30001a81 2bd1                 sub    edx, ecx
1000:30001a83 6a00                 push   00h
1000:30001a85 8d044f               lea    eax, [edi][ecx*2]
1000:30001a88 5b                   pop    ebx
1000:30001a89 742c                 jz     loc_30001ab7
1000:30001a8b 8bfa                 mov    edi, edx
1000:30001a8d 2bfe                 sub    edi, esi
1000:30001a8f 8b7510               mov    esi, [ebp+10h]
1000:30001a92 8dbc0fffffff7f       lea    edi, [edi+7fffffffh][ecx]
1000:30001a99 2bf0                 sub    esi, eax
1000:30001a9b ;                                   XREFS First: 1000:30001ab1 Number : 1
1000:30001a9b loc_30001a9b:
1000:30001a9b 85ff                 test   edi, edi
1000:30001a9d 7414                 jz     loc_30001ab3
1000:30001a9f 0fb70c06             movzx  ecx, word ptr [esi][eax]
1000:30001aa3 6685c9               test   cx, cx
1000:30001aa6 740b                 jz     loc_30001ab3
1000:30001aa8 668908               mov    [eax], cx
1000:30001aab 40                   inc    eax
1000:30001aac 40                   inc    eax
1000:30001aad 4a                   dec    edx
1000:30001aae 4f                   dec    edi
1000:30001aaf 85d2                 test   edx, edx
1000:30001ab1 75e8                 jnz    loc_30001a9b
1000:30001ab3 ;                                   XREFS First: 1000:30001a9d Number : 2
1000:30001ab3 loc_30001ab3:
1000:30001ab3 85d2                 test   edx, edx
1000:30001ab5 7507                 jnz    loc_30001abe
1000:30001ab7 ;                                   XREFS First: 1000:30001a89 Number : 1
1000:30001ab7 loc_30001ab7:
1000:30001ab7 48                   dec    eax
1000:30001ab8 48                   dec    eax
1000:30001ab9 bb7a000780           mov    ebx, 8007007ah
1000:30001abe ;                                   XREFS First: 1000:30001ab5 Number : 1
1000:30001abe loc_30001abe:
1000:30001abe 66832000             and    word ptr [eax], 00h
1000:30001ac2 8bc3                 mov    eax, ebx
1000:30001ac4 ;                                   XREFS First: 1000:30001a7d Number : 1
1000:30001ac4 loc_30001ac4:
1000:30001ac4 5f                   pop    edi
1000:30001ac5 5e                   pop    esi
1000:30001ac6 5b                   pop    ebx
1000:30001ac7 5d                   pop    ebp
1000:30001ac8 c20c00               ret    0ch
1000:30001acb ;                                   XREFS First: 1000:30001a72 Number : 1
1000:30001acb loc_30001acb:
1000:30001acb 8bd6                 mov    edx, esi
1000:30001acd 8bc7                 mov    eax, edi
1000:30001acf 33db                 xor    ebx, ebx
1000:30001ad1 ;                                   XREFS First: 1000:30001adb Number : 1
1000:30001ad1 loc_30001ad1:
1000:30001ad1 33c9                 xor    ecx, ecx
1000:30001ad3 663908               cmp    [eax], cx
1000:30001ad6 7405                 jz     loc_30001add
1000:30001ad8 40                   inc    eax
1000:30001ad9 40                   inc    eax
1000:30001ada 4a                   dec    edx
1000:30001adb 75f4                 jnz    loc_30001ad1
1000:30001add ;                                   XREFS First: 1000:30001ad6 Number : 1
1000:30001add loc_30001add:
1000:30001add 3bd1                 cmp    edx, ecx
1000:30001adf 7507                 jnz    loc_30001ae8
1000:30001ae1 bb57000780           mov    ebx, 80070057h
1000:30001ae6 eb04                 jmp    loc_30001aec
1000:30001ae8 ;                                   XREFS First: 1000:30001adf Number : 1
1000:30001ae8 loc_30001ae8:
1000:30001ae8 8bce                 mov    ecx, esi
1000:30001aea 2bca                 sub    ecx, edx
1000:30001aec ;                                   XREFS First: 1000:30001ae6 Number : 1
1000:30001aec loc_30001aec:
1000:30001aec 8bc3                 mov    eax, ebx
1000:30001aee eb8b                 jmp    loc_30001a7b
1000:30001af0 ;                                   XREFS First: 1000:3000182c Number : 1
1000:30001af0 loc_30001af0:
1000:30001af0 55                   push   ebp
1000:30001af1 8bec                 mov    ebp, esp
1000:30001af3 81ec7c040000         sub    esp, 47ch
1000:30001af9 a174170030           mov    eax, dword ptr [loc_30001774]
1000:30001afe 33c5                 xor    eax, ebp
1000:30001b00 8945fc               mov    [ebp-04h], eax
1000:30001b03 8b4508               mov    eax, [ebp+08h]
1000:30001b06 56                   push   esi
1000:30001b07 898584fbffff         mov    [ebp-47ch], eax
1000:30001b0d 6805010000           push   105h
1000:30001b12 8d85a0fdffff         lea    eax, [ebp-260h]
1000:30001b18 33f6                 xor    esi, esi
1000:30001b1a 50                   push   eax
1000:30001b1b 6689b598fbffff       mov    [ebp-468h], si
1000:30001b22 ff1510100030         call   dword ptr [GetSystemDirectoryW]
1000:30001b28 3bc6                 cmp    eax, esi
1000:30001b2a 7507                 jnz    loc_30001b33
1000:30001b2c 33c0                 xor    eax, eax
1000:30001b2e e9ca000000           jmp    loc_30001bfd
1000:30001b33 ;                                   XREFS First: 1000:30001b2a Number : 1
1000:30001b33 loc_30001b33:
1000:30001b33 03c0                 add    eax, eax
1000:30001b35 8d8c05a0fdffff       lea    ecx, dword ptr [ebp-260h][eax]
1000:30001b3c 6683395c             cmp    word ptr [ecx], 5ch
1000:30001b40 740d                 jz     loc_30001b4f
1000:30001b42 66c7015c00           mov    word ptr [ecx], 5ch
1000:30001b47 6689b405a2fdffff     mov    word ptr [ebp-25eh][eax], si
1000:30001b4f ;                                   XREFS First: 1000:30001b40 Number : 1
1000:30001b4f loc_30001b4f:
1000:30001b4f 57                   push   edi
1000:30001b50 bf241d0030           mov    edi, offset loc_30001d24
1000:30001b55 57                   push   edi
1000:30001b56 6806010000           push   106h
1000:30001b5b 8d85a0fdffff         lea    eax, [ebp-260h]
1000:30001b61 50                   push   eax
1000:30001b62 e8f5feffff           call   loc_30001a5c
1000:30001b67 6a08                 push   08h
1000:30001b69 56                   push   esi
1000:30001b6a 8d85a0fdffff         lea    eax, [ebp-260h]
1000:30001b70 50                   push   eax
1000:30001b71 ff1500100030         call   dword ptr [LoadLibraryExW]
1000:30001b77 3bc6                 cmp    eax, esi
1000:30001b79 898594fbffff         mov    [ebp-46ch], eax
1000:30001b7f 7511                 jnz    loc_30001b92
1000:30001b81 57                   push   edi
1000:30001b82 ff1504100030         call   dword ptr [LoadLibraryW]
1000:30001b88 3bc6                 cmp    eax, esi
1000:30001b8a 898594fbffff         mov    [ebp-46ch], eax
1000:30001b90 743c                 jz     loc_30001bce
1000:30001b92 ;                                   XREFS First: 1000:30001b7f Number : 1
1000:30001b92 loc_30001b92:
1000:30001b92 8b3d08100030         mov    edi, dword ptr [GetProcAddress]
1000:30001b98 68101d0030           push   offset loc_30001d10
1000:30001b9d ffb594fbffff         push   dword ptr [ebp-46ch]
1000:30001ba3 ffd7                 call   edi
1000:30001ba5 68f01c0030           push   offset loc_30001cf0
1000:30001baa ffb594fbffff         push   dword ptr [ebp-46ch]
1000:30001bb0 89858cfbffff         mov    [ebp-474h], eax
1000:30001bb6 ffd7                 call   edi
1000:30001bb8 3bc6                 cmp    eax, esi
1000:30001bba 898588fbffff         mov    [ebp-478h], eax
1000:30001bc0 7510                 jnz    loc_30001bd2
1000:30001bc2 ffb594fbffff         push   dword ptr [ebp-46ch]
1000:30001bc8 ff1514100030         call   dword ptr [FreeLibrary]
1000:30001bce ;                                   XREFS First: 1000:30001b90 Number : 1
1000:30001bce loc_30001bce:
1000:30001bce 33c0                 xor    eax, eax
1000:30001bd0 eb2a                 jmp    loc_30001bfc
1000:30001bd2 ;                                   XREFS First: 1000:30001bc0 Number : 1
1000:30001bd2 loc_30001bd2:
1000:30001bd2 39b584fbffff         cmp    [ebp-47ch], esi
1000:30001bd8 53                   push   ebx
1000:30001bd9 bb60170030           mov    ebx, offset loc_30001760
1000:30001bde bfa01c0030           mov    edi, offset loc_30001ca0
1000:30001be3 746d                 jz     loc_30001c52
1000:30001be5 39b58cfbffff         cmp    [ebp-474h], esi
1000:30001beb 751f                 jnz    loc_30001c0c
1000:30001bed ffb594fbffff         push   dword ptr [ebp-46ch]
1000:30001bf3 ff1514100030         call   dword ptr [FreeLibrary]
1000:30001bf9 33c0                 xor    eax, eax
1000:30001bfb ;                                   XREFS First: 1000:30001c88 Number : 1
1000:30001bfb loc_30001bfb:
1000:30001bfb 5b                   pop    ebx
1000:30001bfc ;                                   XREFS First: 1000:30001bd0 Number : 1
1000:30001bfc loc_30001bfc:
1000:30001bfc 5f                   pop    edi
1000:30001bfd ;                                   XREFS First: 1000:30001b2e Number : 1
1000:30001bfd loc_30001bfd:
1000:30001bfd 8b4dfc               mov    ecx, [ebp-04h]
1000:30001c00 33cd                 xor    ecx, ebp
1000:30001c02 5e                   pop    esi
1000:30001c03 e82c010000           call   loc_30001d34
1000:30001c08 c9                   leave  
1000:30001c09 c20400               ret    04h
1000:30001c0c ;                                   XREFS First: 1000:30001beb Number : 1
1000:30001c0c loc_30001c0c:
1000:30001c0c 8d45ac               lea    eax, [ebp-54h]
1000:30001c0f 50                   push   eax
1000:30001c10 ffb584fbffff         push   dword ptr [ebp-47ch]
1000:30001c16 ff958cfbffff         call   dword ptr [ebp-474h]
1000:30001c1c 3bc6                 cmp    eax, esi
1000:30001c1e 752b                 jnz    loc_30001c4b
1000:30001c20 8d8590fbffff         lea    eax, [ebp-470h]
1000:30001c26 50                   push   eax
1000:30001c27 8d8598fbffff         lea    eax, [ebp-468h]
1000:30001c2d 50                   push   eax
1000:30001c2e 56                   push   esi
1000:30001c2f 56                   push   esi
1000:30001c30 8d45ac               lea    eax, [ebp-54h]
1000:30001c33 50                   push   eax
1000:30001c34 56                   push   esi
1000:30001c35 53                   push   ebx
1000:30001c36 57                   push   edi
1000:30001c37 c78590fbffff04010000 mov    dword ptr [ebp-470h], 104h
1000:30001c41 ff9588fbffff         call   dword ptr [ebp-478h]
1000:30001c47 3bc6                 cmp    eax, esi
1000:30001c49 7442                 jz     loc_30001c8d
1000:30001c4b ;                                   XREFS First: 1000:30001c1e Number : 1
1000:30001c4b loc_30001c4b:
1000:30001c4b 3d42060000           cmp    eax, 642h
1000:30001c50 743b                 jz     loc_30001c8d
1000:30001c52 ;                                   XREFS First: 1000:30001be3 Number : 1
1000:30001c52 loc_30001c52:
1000:30001c52 8d8590fbffff         lea    eax, [ebp-470h]
1000:30001c58 50                   push   eax
1000:30001c59 8d8598fbffff         lea    eax, [ebp-468h]
1000:30001c5f 50                   push   eax
1000:30001c60 56                   push   esi
1000:30001c61 56                   push   esi
1000:30001c62 56                   push   esi
1000:30001c63 56                   push   esi
1000:30001c64 53                   push   ebx
1000:30001c65 57                   push   edi
1000:30001c66 c78590fbffff04010000 mov    dword ptr [ebp-470h], 104h
1000:30001c70 ff9588fbffff         call   dword ptr [ebp-478h]
1000:30001c76 85c0                 test   eax, eax
1000:30001c78 7413                 jz     loc_30001c8d
1000:30001c7a ;                                   XREFS First: 1000:30001c9c Number : 1
1000:30001c7a loc_30001c7a:
1000:30001c7a ffb594fbffff         push   dword ptr [ebp-46ch]
1000:30001c80 ff1514100030         call   dword ptr [FreeLibrary]
1000:30001c86 8bc6                 mov    eax, esi
1000:30001c88 e96effffff           jmp    loc_30001bfb
1000:30001c8d ;                                   XREFS First: 1000:30001c49 Number : 3
1000:30001c8d loc_30001c8d:
1000:30001c8d 8d8598fbffff         lea    eax, [ebp-468h]
1000:30001c93 50                   push   eax
1000:30001c94 ff1504100030         call   dword ptr [LoadLibraryW]
1000:30001c9a 8bf0                 mov    esi, eax
1000:30001c9c ebdc                 jmp    loc_30001c7a
1000:30001c9e 90                   db     90h
1000:30001c9f 90                   db     90h
1000:30001ca0 ;                                   XREFS First: 1000:30001bde Number : 1
1000:30001ca0 loc_30001ca0:
1000:30001ca0 7b                   db     7bh     ;'{'
1000:30001ca1 00                   db     00h
1000:30001ca2 32                   db     32h     ;'2'
1000:30001ca3 00                   db     00h
1000:30001ca4 34                   db     34h     ;'4'
1000:30001ca5 00                   db     00h
1000:30001ca6 41                   db     41h     ;'A'
1000:30001ca7 00                   db     00h
1000:30001ca8 41                   db     41h     ;'A'
1000:30001ca9 00                   db     00h
1000:30001caa 45                   db     45h     ;'E'
1000:30001cab 00                   db     00h
1000:30001cac 31                   db     31h     ;'1'
1000:30001cad 00                   db     00h
1000:30001cae 32                   db     32h     ;'2'
1000:30001caf 00                   db     00h
1000:30001cb0 36                   db     36h     ;'6'
1000:30001cb1 00                   db     00h
1000:30001cb2 2d                   db     2dh     ;'-'
1000:30001cb3 00                   db     00h
1000:30001cb4 30                   db     30h     ;'0'
1000:30001cb5 00                   db     00h
1000:30001cb6 39                   db     39h     ;'9'
1000:30001cb7 00                   db     00h
1000:30001cb8 31                   db     31h     ;'1'
1000:30001cb9 00                   db     00h
1000:30001cba 31                   db     31h     ;'1'
1000:30001cbb 00                   db     00h
1000:30001cbc 2d                   db     2dh     ;'-'
1000:30001cbd 00                   db     00h
1000:30001cbe 34                   db     34h     ;'4'
1000:30001cbf 00                   db     00h
1000:30001cc0 37                   db     37h     ;'7'
1000:30001cc1 00                   db     00h
1000:30001cc2 38                   db     38h     ;'8'
1000:30001cc3 00                   db     00h
1000:30001cc4 46                   db     46h     ;'F'
1000:30001cc5 00                   db     00h
1000:30001cc6 2d                   db     2dh     ;'-'
1000:30001cc7 00                   db     00h
1000:30001cc8 41                   db     41h     ;'A'
1000:30001cc9 00                   db     00h
1000:30001cca 30                   db     30h     ;'0'
1000:30001ccb 00                   db     00h
1000:30001ccc 31                   db     31h     ;'1'
1000:30001ccd 00                   db     00h
1000:30001cce 39                   db     39h     ;'9'
1000:30001ccf 00                   db     00h
1000:30001cd0 2d                   db     2dh     ;'-'
1000:30001cd1 00                   db     00h
1000:30001cd2 30                   db     30h     ;'0'
1000:30001cd3 00                   db     00h
1000:30001cd4 37                   db     37h     ;'7'
1000:30001cd5 00                   db     00h
1000:30001cd6 42                   db     42h     ;'B'
1000:30001cd7 00                   db     00h
1000:30001cd8 38                   db     38h     ;'8'
1000:30001cd9 00                   db     00h
1000:30001cda 37                   db     37h     ;'7'
1000:30001cdb 00                   db     00h
1000:30001cdc 35                   db     35h     ;'5'
1000:30001cdd 00                   db     00h
1000:30001cde 45                   db     45h     ;'E'
1000:30001cdf 00                   db     00h
1000:30001ce0 42                   db     42h     ;'B'
1000:30001ce1 00                   db     00h
1000:30001ce2 39                   db     39h     ;'9'
1000:30001ce3 00                   db     00h
1000:30001ce4 39                   db     39h     ;'9'
1000:30001ce5 00                   db     00h
1000:30001ce6 39                   db     39h     ;'9'
1000:30001ce7 00                   db     00h
1000:30001ce8 36                   db     36h     ;'6'
1000:30001ce9 00                   db     00h
1000:30001cea 7d                   db     7dh     ;'}'
1000:30001ceb 00                   db     00h
1000:30001cec 00                   db     00h
1000:30001ced 00                   db     00h
1000:30001cee 90                   db     90h
1000:30001cef 90                   db     90h
1000:30001cf0 ;                                   XREFS First: 1000:30001ba5 Number : 1
1000:30001cf0 loc_30001cf0:
1000:30001cf0 4d                   db     4dh     ;'M'
1000:30001cf1 73                   db     73h     ;'s'
1000:30001cf2 69                   db     69h     ;'i'
1000:30001cf3 50                   db     50h     ;'P'
1000:30001cf4 72                   db     72h     ;'r'
1000:30001cf5 6f                   db     6fh     ;'o'
1000:30001cf6 76                   db     76h     ;'v'
1000:30001cf7 69                   db     69h     ;'i'
1000:30001cf8 64                   db     64h     ;'d'
1000:30001cf9 65                   db     65h     ;'e'
1000:30001cfa 51                   db     51h     ;'Q'
1000:30001cfb 75                   db     75h     ;'u'
1000:30001cfc 61                   db     61h     ;'a'
1000:30001cfd 6c                   db     6ch     ;'l'
1000:30001cfe 69                   db     69h     ;'i'
1000:30001cff 66                   db     66h     ;'f'
1000:30001d00 69                   db     69h     ;'i'
1000:30001d01 65                   db     65h     ;'e'
1000:30001d02 64                   db     64h     ;'d'
1000:30001d03 43                   db     43h     ;'C'
1000:30001d04 6f                   db     6fh     ;'o'
1000:30001d05 6d                   db     6dh     ;'m'
1000:30001d06 70                   db     70h     ;'p'
1000:30001d07 6f                   db     6fh     ;'o'
1000:30001d08 6e                   db     6eh     ;'n'
1000:30001d09 65                   db     65h     ;'e'
1000:30001d0a 6e                   db     6eh     ;'n'
1000:30001d0b 74                   db     74h     ;'t'
1000:30001d0c 45                   db     45h     ;'E'
1000:30001d0d 78                   db     78h     ;'x'
1000:30001d0e 57                   db     57h     ;'W'
1000:30001d0f 00                   db     00h
1000:30001d10 ;                                   XREFS First: 1000:30001b98 Number : 1
1000:30001d10 loc_30001d10:
1000:30001d10 4d                   db     4dh     ;'M'
1000:30001d11 73                   db     73h     ;'s'
1000:30001d12 69                   db     69h     ;'i'
1000:30001d13 47                   db     47h     ;'G'
1000:30001d14 65                   db     65h     ;'e'
1000:30001d15 74                   db     74h     ;'t'
1000:30001d16 50                   db     50h     ;'P'
1000:30001d17 72                   db     72h     ;'r'
1000:30001d18 6f                   db     6fh     ;'o'
1000:30001d19 64                   db     64h     ;'d'
1000:30001d1a 75                   db     75h     ;'u'
1000:30001d1b 63                   db     63h     ;'c'
1000:30001d1c 74                   db     74h     ;'t'
1000:30001d1d 43                   db     43h     ;'C'
1000:30001d1e 6f                   db     6fh     ;'o'
1000:30001d1f 64                   db     64h     ;'d'
1000:30001d20 65                   db     65h     ;'e'
1000:30001d21 57                   db     57h     ;'W'
1000:30001d22 00                   db     00h
1000:30001d23 90                   db     90h
1000:30001d24 ;                                   XREFS First: 1000:30001b50 Number : 1
1000:30001d24 loc_30001d24:
1000:30001d24 6d                   db     6dh     ;'m'
1000:30001d25 00                   db     00h
1000:30001d26 73                   db     73h     ;'s'
1000:30001d27 00                   db     00h
1000:30001d28 69                   db     69h     ;'i'
1000:30001d29 00                   db     00h
1000:30001d2a 2e                   db     2eh     ;'.'
1000:30001d2b 00                   db     00h
1000:30001d2c 64                   db     64h     ;'d'
1000:30001d2d 00                   db     00h
1000:30001d2e 6c                   db     6ch     ;'l'
1000:30001d2f 00                   db     00h
1000:30001d30 6c                   db     6ch     ;'l'
1000:30001d31 00                   db     00h
1000:30001d32 00                   db     00h
1000:30001d33 00                   db     00h
1000:30001d34 ;                                   XREFS First: 1000:30001c03 Number : 1
1000:30001d34 loc_30001d34:
1000:30001d34 3b0d74170030         cmp    ecx, dword ptr [loc_30001774]
1000:30001d3a 7501                 jnz    loc_30001d3d
1000:30001d3c c3                   ret    
1000:30001d3d ;                                   XREFS First: 1000:30001d3a Number : 1
1000:30001d3d loc_30001d3d:
1000:30001d3d 55                   push   ebp
1000:30001d3e 8bec                 mov    ebp, esp
1000:30001d40 81ec28030000         sub    esp, 328h
1000:30001d46 a368310030           mov    dword ptr [loc_30003168], eax
1000:30001d4b 890d64310030         mov    dword ptr [loc_30003164], ecx
1000:30001d51 891560310030         mov    dword ptr [loc_30003160], edx
1000:30001d57 891d5c310030         mov    dword ptr [loc_3000315c], ebx
1000:30001d5d 893558310030         mov    dword ptr [loc_30003158], esi
1000:30001d63 893d54310030         mov    dword ptr [loc_30003154], edi
1000:30001d69 668c1580310030       mov    word ptr [loc_30003180], ss
1000:30001d70 668c0d74310030       mov    word ptr [loc_30003174], cs
1000:30001d77 668c1d50310030       mov    word ptr [loc_30003150], ds
1000:30001d7e 668c054c310030       mov    word ptr [loc_3000314c], es
1000:30001d85 668c2548310030       mov    word ptr [loc_30003148], fs
1000:30001d8c 668c2d44310030       mov    word ptr [loc_30003144], gs
1000:30001d93 9c                   pushfd 
1000:30001d94 8f0578310030         pop    dword ptr [loc_30003178]
1000:30001d9a 8b4500               mov    eax, [ebp+00h]
1000:30001d9d a36c310030           mov    dword ptr [loc_3000316c], eax
1000:30001da2 8b4504               mov    eax, [ebp+04h]
1000:30001da5 a370310030           mov    dword ptr [loc_30003170], eax
1000:30001daa 8d4508               lea    eax, [ebp+08h]
1000:30001dad a37c310030           mov    dword ptr [loc_3000317c], eax
1000:30001db2 8b85e0fcffff         mov    eax, [ebp-320h]
1000:30001db8 c705b830003001000100 mov    dword ptr [loc_300030b8], 10001h
1000:30001dc2 a170310030           mov    eax, dword ptr [loc_30003170]
1000:30001dc7 a36c300030           mov    dword ptr [loc_3000306c], eax
1000:30001dcc c70560300030090400c0 mov    dword ptr [loc_30003060], 0c0000409h
1000:30001dd6 c7056430003001000000 mov    dword ptr [loc_30003064], 01h
1000:30001de0 a174170030           mov    eax, dword ptr [loc_30001774]
1000:30001de5 8985d8fcffff         mov    [ebp-328h], eax
1000:30001deb a100300030           mov    eax, dword ptr [loc_30003000]
1000:30001df0 8985dcfcffff         mov    [ebp-324h], eax
1000:30001df6 ff1558100030         call   dword ptr [IsDebuggerPresent]
1000:30001dfc a3b0300030           mov    dword ptr [loc_300030b0], eax
1000:30001e01 6a01                 push   01h
1000:30001e03 e897010000           call   __crt_debugger_hook
1000:30001e08 59                   pop    ecx
1000:30001e09 6a00                 push   00h
1000:30001e0b ff1518100030         call   dword ptr [SetUnhandledExceptionFilter]
1000:30001e11 68441e0030           push   offset loc_30001e44
1000:30001e16 ff151c100030         call   dword ptr [UnhandledExceptionFilter]
1000:30001e1c 833db030003000       cmp    dword ptr [loc_300030b0], 00h
1000:30001e23 7508                 jnz    loc_30001e2d
1000:30001e25 6a01                 push   01h
1000:30001e27 e873010000           call   __crt_debugger_hook
1000:30001e2c 59                   pop    ecx
1000:30001e2d ;                                   XREFS First: 1000:30001e23 Number : 1
1000:30001e2d loc_30001e2d:
1000:30001e2d 68090400c0           push   0c0000409h
1000:30001e32 ff1520100030         call   dword ptr [GetCurrentProcess]
1000:30001e38 50                   push   eax
1000:30001e39 ff1524100030         call   dword ptr [TerminateProcess]
1000:30001e3f c9                   leave  
1000:30001e40 c3                   ret    
1000:30001e41 90                   db     90h
1000:30001e42 90                   db     90h
1000:30001e43 90                   db     90h
1000:30001e44 ;                                   XREFS First: 1000:30001e11 Number : 1
1000:30001e44 loc_30001e44:
1000:30001e44 60                   db     60h     ;'`'
1000:30001e45 30                   db     30h     ;'0'
1000:30001e46 00                   db     00h
1000:30001e47 30                   db     30h     ;'0'
1000:30001e48 b8                   db     0b8h
1000:30001e49 30                   db     30h     ;'0'
1000:30001e4a 00                   db     00h
1000:30001e4b 30                   db     30h     ;'0'
1000:30001e4c ;                                   XREFS First: 1000:30001907 Number : 1
1000:30001e4c __amsg_exit:
1000:30001e4c ff25d0100030         jmp    dword ptr [_amsg_exit]
1000:30001e52 56                   db     56h     ;'V'
1000:30001e53 57                   db     57h     ;'W'
1000:30001e54 b8                   db     0b8h
1000:30001e55 7c                   db     7ch     ;'|'
1000:30001e56 1e                   db     1eh
1000:30001e57 00                   db     00h
1000:30001e58 30                   db     30h     ;'0'
1000:30001e59 bf                   db     0bfh
1000:30001e5a 7c                   db     7ch     ;'|'
1000:30001e5b 1e                   db     1eh
1000:30001e5c 00                   db     00h
1000:30001e5d 30                   db     30h     ;'0'
1000:30001e5e 3b                   db     3bh     ;';'
1000:30001e5f c7                   db     0c7h
1000:30001e60 8b                   db     8bh
1000:30001e61 f0                   db     0f0h
1000:30001e62 73                   db     73h     ;'s'
1000:30001e63 0f                   db     0fh
1000:30001e64 8b                   db     8bh
1000:30001e65 06                   db     06h
1000:30001e66 85                   db     85h
1000:30001e67 c0                   db     0c0h
1000:30001e68 74                   db     74h     ;'t'
1000:30001e69 02                   db     02h
1000:30001e6a ff                   db     0ffh
1000:30001e6b d0                   db     0d0h
1000:30001e6c 83                   db     83h
1000:30001e6d c6                   db     0c6h
1000:30001e6e 04                   db     04h
1000:30001e6f 3b                   db     3bh     ;';'
1000:30001e70 f7                   db     0f7h
1000:30001e71 72                   db     72h     ;'r'
1000:30001e72 f1                   db     0f1h
1000:30001e73 5f                   db     5fh     ;'_'
1000:30001e74 5e                   db     5eh     ;'^'
1000:30001e75 c3                   db     0c3h
1000:30001e76 90                   db     90h
1000:30001e77 90                   db     90h
1000:30001e78 00                   db     00h
1000:30001e79 00                   db     00h
1000:30001e7a 00                   db     00h
1000:30001e7b 00                   db     00h
1000:30001e7c 00                   db     00h
1000:30001e7d 00                   db     00h
1000:30001e7e 00                   db     00h
1000:30001e7f 00                   db     00h
1000:30001e80 ff                   db     0ffh
1000:30001e81 25                   db     25h     ;'%'
1000:30001e82 c0                   db     0c0h
1000:30001e83 10                   db     10h
1000:30001e84 00                   db     00h
1000:30001e85 30                   db     30h     ;'0'
1000:30001e86 ;                                   XREFS First: 1000:30001f07 Number : 1
1000:30001e86 loc_30001e86:
1000:30001e86 8b4c2404             mov    ecx, [esp+04h]
1000:30001e8a 6681394d5a           cmp    word ptr [ecx], 5a4dh
1000:30001e8f 7403                 jz     loc_30001e94
1000:30001e91 ;                                   XREFS First: 1000:30001e9f Number : 1
1000:30001e91 loc_30001e91:
1000:30001e91 33c0                 xor    eax, eax
1000:30001e93 c3                   ret    
1000:30001e94 ;                                   XREFS First: 1000:30001e8f Number : 1
1000:30001e94 loc_30001e94:
1000:30001e94 8b413c               mov    eax, [ecx+3ch]
1000:30001e97 03c1                 add    eax, ecx
1000:30001e99 813850450000         cmp    dword ptr [eax], 4550h
1000:30001e9f 75f0                 jnz    loc_30001e91
1000:30001ea1 33c9                 xor    ecx, ecx
1000:30001ea3 668178180b01         cmp    word ptr [eax+18h], 10bh
1000:30001ea9 0f94c1               setz   cl
1000:30001eac 8bc1                 mov    eax, ecx
1000:30001eae c3                   ret    
1000:30001eaf ;                                   XREFS First: 1000:30001f18 Number : 1
1000:30001eaf loc_30001eaf:
1000:30001eaf 8b442404             mov    eax, [esp+04h]
1000:30001eb3 8b483c               mov    ecx, [eax+3ch]
1000:30001eb6 03c8                 add    ecx, eax
1000:30001eb8 0fb74114             movzx  eax, word ptr [ecx+14h]
1000:30001ebc 53                   push   ebx
1000:30001ebd 56                   push   esi
1000:30001ebe 0fb77106             movzx  esi, word ptr [ecx+06h]
1000:30001ec2 33d2                 xor    edx, edx
1000:30001ec4 85f6                 test   esi, esi
1000:30001ec6 57                   push   edi
1000:30001ec7 8d440818             lea    eax, [eax+18h][ecx]
1000:30001ecb 761e                 jbe    loc_30001eeb
1000:30001ecd 8b7c2414             mov    edi, [esp+14h]
1000:30001ed1 ;                                   XREFS First: 1000:30001ee9 Number : 1
1000:30001ed1 loc_30001ed1:
1000:30001ed1 8b480c               mov    ecx, [eax+0ch]
1000:30001ed4 3bf9                 cmp    edi, ecx
1000:30001ed6 7209                 jc     loc_30001ee1
1000:30001ed8 8b5808               mov    ebx, [eax+08h]
1000:30001edb 03d9                 add    ebx, ecx
1000:30001edd 3bfb                 cmp    edi, ebx
1000:30001edf 720c                 jc     loc_30001eed
1000:30001ee1 ;                                   XREFS First: 1000:30001ed6 Number : 1
1000:30001ee1 loc_30001ee1:
1000:30001ee1 83c201               add    edx, 01h
1000:30001ee4 83c028               add    eax, 28h
1000:30001ee7 3bd6                 cmp    edx, esi
1000:30001ee9 72e6                 jc     loc_30001ed1
1000:30001eeb ;                                   XREFS First: 1000:30001ecb Number : 1
1000:30001eeb loc_30001eeb:
1000:30001eeb 33c0                 xor    eax, eax
1000:30001eed ;                                   XREFS First: 1000:30001edf Number : 1
1000:30001eed loc_30001eed:
1000:30001eed 5f                   pop    edi
1000:30001eee 5e                   pop    esi
1000:30001eef 5b                   pop    ebx
1000:30001ef0 c3                   ret    
1000:30001ef1 ;                                   XREFS First: 1000:30001917 Number : 1
1000:30001ef1 loc_30001ef1:
1000:30001ef1 6a08                 push   08h
1000:30001ef3 68601f0030           push   offset loc_30001f60
1000:30001ef8 e803f4ffff           call   loc_30001300
1000:30001efd 8365fc00             and    dword ptr [ebp-04h], 00h
1000:30001f01 ba00000030           mov    edx, offset 30000000h
1000:30001f06 52                   push   edx
1000:30001f07 e87affffff           call   loc_30001e86
1000:30001f0c 59                   pop    ecx
1000:30001f0d 85c0                 test   eax, eax
1000:30001f0f 743d                 jz     loc_30001f4e
1000:30001f11 8b4508               mov    eax, [ebp+08h]
1000:30001f14 2bc2                 sub    eax, edx
1000:30001f16 50                   push   eax
1000:30001f17 52                   push   edx
1000:30001f18 e892ffffff           call   loc_30001eaf
1000:30001f1d 59                   pop    ecx
1000:30001f1e 59                   pop    ecx
1000:30001f1f 85c0                 test   eax, eax
1000:30001f21 742b                 jz     loc_30001f4e
1000:30001f23 8b4024               mov    eax, [eax+24h]
1000:30001f26 c1e81f               shr    eax, 1fh
1000:30001f29 f7d0                 not    eax
1000:30001f2b 83e001               and    eax, 01h
1000:30001f2e c745fcfeffffff       mov    dword ptr [ebp-04h], 0fffffffeh
1000:30001f35 eb20                 jmp    loc_30001f57
1000:30001f37 8b                   db     8bh
1000:30001f38 45                   db     45h     ;'E'
1000:30001f39 ec                   db     0ech
1000:30001f3a 8b                   db     8bh
1000:30001f3b 00                   db     00h
1000:30001f3c 8b                   db     8bh
1000:30001f3d 00                   db     00h
1000:30001f3e 33                   db     33h     ;'3'
1000:30001f3f c9                   db     0c9h
1000:30001f40 3d                   db     3dh     ;'='
1000:30001f41 05                   db     05h
1000:30001f42 00                   db     00h
1000:30001f43 00                   db     00h
1000:30001f44 c0                   db     0c0h
1000:30001f45 0f                   db     0fh
1000:30001f46 94                   db     94h
1000:30001f47 c1                   db     0c1h
1000:30001f48 8b                   db     8bh
1000:30001f49 c1                   db     0c1h
1000:30001f4a c3                   db     0c3h
1000:30001f4b 8b                   db     8bh
1000:30001f4c 65                   db     65h     ;'e'
1000:30001f4d e8                   db     0e8h
1000:30001f4e ;                                   XREFS First: 1000:30001f0f Number : 2
1000:30001f4e loc_30001f4e:
1000:30001f4e c745fcfeffffff       mov    dword ptr [ebp-04h], 0fffffffeh
1000:30001f55 33c0                 xor    eax, eax
1000:30001f57 ;                                   XREFS First: 1000:30001f35 Number : 1
1000:30001f57 loc_30001f57:
1000:30001f57 e8b8f5ffff           call   loc_30001514
1000:30001f5c c3                   ret    
1000:30001f5d 90                   db     90h
1000:30001f5e 90                   db     90h
1000:30001f5f 90                   db     90h
1000:30001f60 ;                                   XREFS First: 1000:30001ef3 Number : 1
1000:30001f60 loc_30001f60:
1000:30001f60 fe                   db     0feh
1000:30001f61 ff                   db     0ffh
1000:30001f62 ff                   db     0ffh
1000:30001f63 ff                   db     0ffh
1000:30001f64 00                   db     00h
1000:30001f65 00                   db     00h
1000:30001f66 00                   db     00h
1000:30001f67 00                   db     00h
1000:30001f68 d8                   db     0d8h
1000:30001f69 ff                   db     0ffh
1000:30001f6a ff                   db     0ffh
1000:30001f6b ff                   db     0ffh
1000:30001f6c 00                   db     00h
1000:30001f6d 00                   db     00h
1000:30001f6e 00                   db     00h
1000:30001f6f 00                   db     00h
1000:30001f70 fe                   db     0feh
1000:30001f71 ff                   db     0ffh
1000:30001f72 ff                   db     0ffh
1000:30001f73 ff                   db     0ffh
1000:30001f74 37                   db     37h     ;'7'
1000:30001f75 1f                   db     1fh
1000:30001f76 00                   db     00h
1000:30001f77 30                   db     30h     ;'0'
1000:30001f78 4b                   db     4bh     ;'K'
1000:30001f79 1f                   db     1fh
1000:30001f7a 00                   db     00h
1000:30001f7b 30                   db     30h     ;'0'
1000:30001f7c ;                                   XREFS First: 1000:30001300 Number : 1
1000:30001f7c loc_30001f7c:
1000:30001f7c ff                   db     0ffh
1000:30001f7d 74                   db     74h     ;'t'
1000:30001f7e 24                   db     24h     ;'$'
1000:30001f7f 10                   db     10h
1000:30001f80 ff                   db     0ffh
1000:30001f81 74                   db     74h     ;'t'
1000:30001f82 24                   db     24h     ;'$'
1000:30001f83 10                   db     10h
1000:30001f84 ff                   db     0ffh
1000:30001f85 74                   db     74h     ;'t'
1000:30001f86 24                   db     24h     ;'$'
1000:30001f87 10                   db     10h
1000:30001f88 ff                   db     0ffh
1000:30001f89 74                   db     74h     ;'t'
1000:30001f8a 24                   db     24h     ;'$'
1000:30001f8b 10                   db     10h
1000:30001f8c 68                   db     68h     ;'h'
1000:30001f8d 34                   db     34h     ;'4'
1000:30001f8e 1d                   db     1dh
1000:30001f8f 00                   db     00h
1000:30001f90 30                   db     30h     ;'0'
1000:30001f91 68                   db     68h     ;'h'
1000:30001f92 74                   db     74h     ;'t'
1000:30001f93 17                   db     17h
1000:30001f94 00                   db     00h
1000:30001f95 30                   db     30h     ;'0'
1000:30001f96 e8                   db     0e8h
1000:30001f97 1c                   db     1ch
1000:30001f98 00                   db     00h
1000:30001f99 00                   db     00h
1000:30001f9a 00                   db     00h
1000:30001f9b 83                   db     83h
1000:30001f9c c4                   db     0c4h
1000:30001f9d 18                   db     18h
1000:30001f9e c3                   db     0c3h
1000:30001f9f ;                                   XREFS First: 1000:30001e03 Number : 2
1000:30001f9f __crt_debugger_hook:
1000:30001f9f ff2570100030         jmp    dword ptr [_crt_debugger_hook]
1000:30001fa5 ff                   db     0ffh
1000:30001fa6 25                   db     25h     ;'%'
1000:30001fa7 74                   db     74h     ;'t'
1000:30001fa8 10                   db     10h
1000:30001fa9 00                   db     00h
1000:30001faa 30                   db     30h     ;'0'
1000:30001fab ff                   db     0ffh
1000:30001fac 25                   db     25h     ;'%'
1000:30001fad 78                   db     78h     ;'x'
1000:30001fae 10                   db     10h
1000:30001faf 00                   db     00h
1000:30001fb0 30                   db     30h     ;'0'
1000:30001fb1 ff                   db     0ffh
1000:30001fb2 25                   db     25h     ;'%'
1000:30001fb3 7c                   db     7ch     ;'|'
1000:30001fb4 10                   db     10h
1000:30001fb5 00                   db     00h
1000:30001fb6 30                   db     30h     ;'0'
1000:30001fb7 ff                   db     0ffh
1000:30001fb8 25                   db     25h     ;'%'
1000:30001fb9 88                   db     88h
1000:30001fba 10                   db     10h
1000:30001fbb 00                   db     00h
1000:30001fbc 30                   db     30h     ;'0'
1000:30001fbd ff                   db     0ffh
1000:30001fbe 25                   db     25h     ;'%'
1000:30001fbf 8c                   db     8ch
1000:30001fc0 10                   db     10h
1000:30001fc1 00                   db     00h
1000:30001fc2 30                   db     30h     ;'0'
1000:30001fc3 90                   db     90h
1000:30001fc4 00000000             dd     00h
1000:30001fc8 573e654c             dd     4c653e57h
1000:30001fcc 0000                 dw     00h
1000:30001fce 0000                 dw     00h
1000:30001fd0 0a200000             dd     200ah
1000:30001fd4 01000000             dd     01h
1000:30001fd8 03000000             dd     03h
1000:30001fdc 03000000             dd     03h
1000:30001fe0 ec1f0000             dd     1fech
1000:30001fe4 f8                   db     0f8h
1000:30001fe5 1f                   db     1fh
1000:30001fe6 00                   db     00h
1000:30001fe7 00                   db     00h
1000:30001fe8 04                   db     04h
1000:30001fe9 20                   db     20h     ;' '
1000:30001fea 00                   db     00h
1000:30001feb 00                   db     00h
1000:30001fec 4c1a0000             dd     1a4ch
1000:30001ff0 561a0000             dd     1a56h
1000:30001ff4 4a200000             dd     204ah
1000:30001ff8 16200000             dd     2016h
1000:30001ffc 21200000             dd     2021h
1000:30002000 33200000             dd     2033h
1000:30002004 0200                 dw     02h
1000:30002006 0000                 dw     00h
1000:30002008 0100                 dw     01h
1000:3000200a s_winword_exe:
1000:3000200a 77696e776f72642e65.. db     "winword.exe",00h
1000:30002016 s_DllGetLCID:
1000:30002016 446c6c4765744c4349.. db     "DllGetLCID",00h
1000:30002021 s_wdCommandDispatch:
1000:30002021 7764436f6d6d616e64.. db     "wdCommandDispatch",00h
1000:30002033 s_wdGetApplicationObject:
1000:30002033 77644765744170706c.. db     "wdGetApplicationObject",00h
1000:3000204a DllGetLCID:
1000:3000204a 4d                   dec    ebp
1000:3000204b 53                   push   ebx
1000:3000204c 4f                   dec    edi
1000:3000204d 2e44                 inc    esp
1000:3000204f 6c                   insb   
1000:30002050 6c                   insb   
1000:30002051 47                   inc    edi
1000:30002052 65744c               jz     300020a1h
1000:30002055 43                   inc    ebx
1000:30002056 49                   dec    ecx
1000:30002057 44                   inc    esp
1000:30002058 00909090d420         add    [eax+20d49090h], dl
1000:3000205e 0000                 add    [eax], al
1000:30002060 0000                 add    [eax], al
1000:30002062 0000                 add    [eax], al
1000:30002064 0000                 add    [eax], al
1000:30002066 0000                 add    [eax], al
1000:30002068 ac                   lodsb  
1000:30002069 2000                 and    [eax], al
1000:3000206b 0000                 add    [eax], al
1000:3000206d 1000                 adc    [eax], al
1000:3000206f 003421               add    [ecx], dh
1000:30002072 0000                 add    [eax], al
1000:30002074 0000                 add    [eax], al
1000:30002076 0000                 add    [eax], al
1000:30002078 0000                 add    [eax], al
1000:3000207a 0000                 add    [eax], al
1000:3000207c ba20000060           mov    edx, 60000020h
1000:30002081 1000                 adc    [eax], al
1000:30002083 00442100             add    [ecx+00h], al
1000:30002087 0000                 add    [eax], al
1000:30002089 0000                 add    [eax], al
1000:3000208b 0000                 add    [eax], al
1000:3000208d 0000                 add    [eax], al
1000:3000208f 00c8                 add    al, cl
1000:30002091 2000                 and    [eax], al
1000:30002093 007010               add    [eax+10h], dh
1000:30002096 0000                 add    [eax], al
1000:30002098 0000                 add    [eax], al
1000:3000209a 0000                 add    [eax], al
1000:3000209c 0000                 add    [eax], al
1000:3000209e 0000                 add    [eax], al
1000:300020a0 0000                 add    [eax], al
1000:300020a2 0000                 add    [eax], al
1000:300020a4 0000                 add    [eax], al
1000:300020a6 0000                 add    [eax], al
1000:300020a8 0000                 add    [eax], al
1000:300020aa 0000                 add    [eax], al
1000:300020ac 4b                   dec    ebx
1000:300020ad 45                   inc    ebp
1000:300020ae 52                   push   edx
1000:300020af 4e                   dec    esi
1000:300020b0 45                   inc    ebp
1000:300020b1 4c                   dec    esp
1000:300020b2 3332                 xor    esi, [edx]
1000:300020b4 2e646c               insb   cs:
1000:300020b7 6c                   insb   
1000:300020b8 0000                 add    [eax], al
1000:300020ba 41                   inc    ecx
1000:300020bb 44                   inc    esp
1000:300020bc 56                   push   esi
1000:300020bd 41                   inc    ecx
1000:300020be 50                   push   eax
1000:300020bf 49                   dec    ecx
1000:300020c0 3332                 xor    esi, [edx]
1000:300020c2 2e646c               insb   cs:
1000:300020c5 6c                   insb   
1000:300020c6 0000                 add    [eax], al
1000:300020c8 4d                   dec    ebp
1000:300020c9 53                   push   ebx
1000:300020ca 56                   push   esi
1000:300020cb 43                   inc    ebx
1000:300020cc 52                   push   edx
1000:300020cd 3830                 cmp    [eax], dh
1000:300020cf 2e646c               insb   cs:
1000:300020d2 6c                   insb   
1000:300020d3 00b0210000c2         add    [eax-3dffffdfh], dh
1000:300020d9 2100                 and    [eax], eax
1000:300020db 00d2                 add    dl, dl
1000:300020dd 2100                 and    [eax], eax
1000:300020df 00e4                 add    ah, ah
1000:300020e1 2100                 and    [eax], eax
1000:300020e3 00f4                 add    ah, dh
1000:300020e5 2100                 and    [eax], eax
1000:300020e7 000a                 add    [edx], cl
1000:300020e9 2200                 and    al, [eax]
1000:300020eb 0018                 add    [eax], bl
1000:300020ed 2200                 and    al, [eax]
1000:300020ef 0036                 add    [esi], dh
1000:300020f1 2200                 and    al, [eax]
1000:300020f3 005222               add    [edx+22h], dl
1000:300020f6 0000                 add    [eax], al
1000:300020f8 662200               and    al, [eax]
1000:300020fb 007a22               add    [edx+22h], bh
1000:300020fe 0000                 add    [eax], al
1000:30002100 8c22                 mov    [edx], fs
1000:30002102 0000                 add    [eax], al
1000:30002104 aa                   stosb  
1000:30002105 2200                 and    al, [eax]
1000:30002107 00b2220000c8         add    [edx-37ffffdeh], dh
1000:3000210d 2200                 and    al, [eax]
1000:3000210f 00dc                 add    ah, bl
1000:30002111 2200                 and    al, [eax]
1000:30002113 00ee                 add    dh, ch
1000:30002115 2200                 and    al, [eax]
1000:30002117 0008                 add    [eax], cl
1000:30002119 2300                 and    eax, [eax]
1000:3000211b 001e                 add    [esi], bl
1000:3000211d 2300                 and    eax, [eax]
1000:3000211f 003423               add    [ebx], dh
1000:30002122 0000                 add    [eax], al
1000:30002124 44                   inc    esp
1000:30002125 2300                 and    eax, [eax]
1000:30002127 005e23               add    [esi+23h], bl
1000:3000212a 0000                 add    [eax], al
1000:3000212c 7023                 jo     loc_30002151
1000:3000212e 0000                 add    [eax], al
1000:30002130 0000                 add    [eax], al
1000:30002132 0000                 add    [eax], al
1000:30002134 8423                 test   [ebx], ah
1000:30002136 0000                 add    [eax], al
1000:30002138 98                   cwde   
1000:30002139 2300                 and    eax, [eax]
1000:3000213b 00a623000000         add    [esi+23h], ah
1000:30002141 0000                 add    [eax], al
1000:30002143 00b6230000cc         add    [esi-33ffffddh], dh
1000:30002149 2300                 and    eax, [eax]
1000:3000214b 00d6                 add    dh, dl
1000:3000214d 2300                 and    eax, [eax]
1000:3000214f 00e4                 add    ah, ah
1000:30002151 ;                                   XREFS First: 1000:3000212c Number : 1
1000:30002151 loc_30002151:
1000:30002151 2300                 and    eax, [eax]
1000:30002153 00ec                 add    ah, ch
1000:30002155 2300                 and    eax, [eax]
1000:30002157 00f6                 add    dh, dh
1000:30002159 2300                 and    eax, [eax]
1000:3000215b 0008                 add    [eax], cl
1000:3000215d 2400                 and    al, 00h
1000:3000215f 0022                 add    [edx], ah
1000:30002161 2400                 and    al, 00h
1000:30002163 003424               add    [esp], dh
1000:30002166 0000                 add    [eax], al
1000:30002168 44                   inc    esp
1000:30002169 2400                 and    al, 00h
1000:3000216b 005624               add    [esi+24h], dl
1000:3000216e 0000                 add    [eax], al
1000:30002170 642400               and    al, 00h
1000:30002173 00742400             add    [esp+00h], dh
1000:30002177 00842400009824       add    [esp+24980000h], al
1000:3000217e 0000                 add    [eax], al
1000:30002180 ae                   scasb  
1000:30002181 2400                 and    al, 00h
1000:30002183 00bc240000c824       add    [esp+24c80000h], bh
1000:3000218a 0000                 add    [eax], al
1000:3000218c d22400               shl    [eax][eax], cl
1000:3000218f 00da                 add    dl, bl
1000:30002191 2400                 and    al, 00h
1000:30002193 00e8                 add    al, ch
1000:30002195 2400                 and    al, 00h
1000:30002197 00f6                 add    dh, dh
1000:30002199 2400                 and    al, 00h
1000:3000219b 00fe                 add    dh, bh
1000:3000219d 2400                 and    al, 00h
1000:3000219f 0008                 add    [eax], cl
1000:300021a1 2500001825           and    eax, 25180000h
1000:300021a6 0000                 add    [eax], al
1000:300021a8 262500000000         and    eax, 00h
1000:300021ae 0000                 add    [eax], al
1000:300021b0 40                   inc    eax
1000:300021b1 024c6f61             add    cl, [edi+61h][ebp*2]
1000:300021b5 644c                 dec    esp
1000:300021b7 69627261727945       imul   esp, [edx+72h], 45797261h
1000:300021be 7857                 js     30002217h
1000:300021c0 0000                 add    [eax], al
1000:300021c2 41                   inc    ecx
1000:300021c3 024c6f61             add    cl, [edi+61h][ebp*2]
1000:300021c7 644c                 dec    esp
1000:300021c9 69627261727957       imul   esp, [edx+72h], 57797261h
1000:300021d0 0000                 add    [eax], al
1000:300021d2 93                   xchg   eax, ebx
1000:300021d3 014765               add    [edi+65h], eax
1000:300021d6 7450                 jz     30002228h
1000:300021d8 726f                 jc     30002249h
1000:300021da 634164               arpl   ax, [ecx+64h]
1000:300021dd 647265               jc     30002245h
1000:300021e0 7373                 jnc    30002255h
1000:300021e2 0000                 add    [eax], al
1000:300021e4 64014765             add    fs:[edi+65h], eax
1000:300021e8 744c                 jz     loc_30002236
1000:300021ea 61                   popad  
1000:300021eb 7374                 jnc    loc_30002261
1000:300021ed 45                   inc    ebp
1000:300021ee 7272                 jc     30002262h
1000:300021f0 6f                   outsd  
1000:300021f1 7200                 jc     loc_300021f3
1000:300021f3 ;                                   XREFS First: 1000:300021f1 Number : 1
1000:300021f3 loc_300021f3:
1000:300021f3 00b301476574         add    [ebx+74654701h], dh
1000:300021f9 53                   push   ebx
1000:300021fa 7973                 jns    3000226fh
1000:300021fc 7465                 jz     30002263h
1000:300021fe 6d                   insd   
1000:300021ff 44                   inc    esp
1000:30002200 69726563746f72       imul   esi, [edx+65h], 726f7463h
1000:30002207 7957                 jns    30002260h
1000:30002209 00eb                 add    bl, ch
1000:3000220b 004672               add    [esi+72h], al
1000:3000220e 65654c               dec    esp
1000:30002211 69627261727900       imul   esp, [edx+72h], 797261h
1000:30002218 2d03536574           sub    eax, 74655303h
1000:3000221d 55                   push   ebp
1000:3000221e 6e                   outsb  
1000:3000221f 68616e646c           push   6c646e61h
1000:30002224 656445               inc    ebp
1000:30002227 7863                 js     3000228ch
1000:30002229 657074               jo     loc_300022a0
1000:3000222c 696f6e46696c74       imul   ebp, [edi+6eh], 746c6946h
1000:30002233 657200               jc     loc_30002236
1000:30002236 ;                                   XREFS First: 1000:300021e8 Number : 2
1000:30002236 loc_30002236:
1000:30002236 52                   push   edx
1000:30002237 03556e               add    edx, [ebp+6eh]
1000:3000223a 68616e646c           push   6c646e61h
1000:3000223f 656445               inc    ebp
1000:30002242 7863                 js     300022a7h
1000:30002244 657074               jo     loc_300022bb
1000:30002247 696f6e46696c74       imul   ebp, [edi+6eh], 746c6946h
1000:3000224e 657200               jc     loc_30002251
1000:30002251 ;                                   XREFS First: 1000:3000224f Number : 1
1000:30002251 loc_30002251:
1000:30002251 003501476574         add    byte ptr [74654701h], dh
1000:30002257 43                   inc    ebx
1000:30002258 7572                 jnz    300022cch
1000:3000225a 7265                 jc     300022c1h
1000:3000225c 6e                   outsb  
1000:3000225d 7450                 jz     300022afh
1000:3000225f 726f                 jc     300022d0h
1000:30002261 ;                                   XREFS First: 1000:300021eb Number : 1
1000:30002261 loc_30002261:
1000:30002261 636573               arpl   sp, [ebp+73h]
1000:30002264 7300                 jnc    loc_30002266
1000:30002266 ;                                   XREFS First: 1000:30002264 Number : 1
1000:30002266 loc_30002266:
1000:30002266 41                   inc    ecx
1000:30002267 03546572             add    edx, [ebp+72h]
1000:3000226b 6d                   insd   
1000:3000226c 696e6174655072       imul   ebp, [esi+61h], 72506574h
1000:30002273 6f                   outsd  
1000:30002274 636573               arpl   sp, [ebp+73h]
1000:30002277 7300                 jnc    loc_30002279
1000:30002279 ;                                   XREFS First: 1000:30002277 Number : 1
1000:30002279 loc_30002279:
1000:30002279 00a801476574         add    [eax+74654701h], ch
1000:3000227f 53                   push   ebx
1000:30002280 7461                 jz     300022e3h
1000:30002282 7274                 jc     loc_300022f8
1000:30002284 7570                 jnz    loc_300022f6
1000:30002286 49                   dec    ecx
1000:30002287 6e                   outsb  
1000:30002288 666f                 outsw  
1000:3000228a 41                   inc    ecx
1000:3000228b 0012                 add    [edx], dl
1000:3000228d 02496e               add    cl, [ecx+6eh]
1000:30002290 7465                 jz     300022f7h
1000:30002292 726c                 jc     30002300h
1000:30002294 6f                   outsd  
1000:30002295 636b65               arpl   bp, [ebx+65h]
1000:30002298 6443                 inc    ebx
1000:3000229a 6f                   outsd  
1000:3000229b 6d                   insd   
1000:3000229c 7061                 jo     300022ffh
1000:3000229e 7265                 jc     30002305h
1000:300022a0 ;                                   XREFS First: 1000:3000222a Number : 1
1000:300022a0 loc_300022a0:
1000:300022a0 45                   inc    ebp
1000:300022a1 7863                 js     30002306h
1000:300022a3 68616e6765           push   65676e61h
1000:300022a8 0000                 add    [eax], al
1000:300022aa 3903                 cmp    [ebx], eax
1000:300022ac 53                   push   ebx
1000:300022ad 6c                   insb   
1000:300022ae 65657000             jo     loc_300022b2
1000:300022b2 ;                                   XREFS First: 1000:300022b0 Number : 1
1000:300022b2 loc_300022b2:
1000:300022b2 1502496e74           adc    eax, 746e4902h
1000:300022b7 65726c               jc     loc_30002326
1000:300022ba 6f                   outsd  
1000:300022bb ;                                   XREFS First: 1000:30002245 Number : 1
1000:300022bb loc_300022bb:
1000:300022bb 636b65               arpl   bp, [ebx+65h]
1000:300022be 6445                 inc    ebp
1000:300022c0 7863                 js     30002325h
1000:300022c2 68616e6765           push   65676e61h
1000:300022c7 007501               add    [ebp+01h], dh
1000:300022ca 47                   inc    edi
1000:300022cb 65744d               jz     3000231bh
1000:300022ce 6f                   outsd  
1000:300022cf 64756c               jnz    loc_3000233e
1000:300022d2 6548                 dec    eax
1000:300022d4 61                   popad  
1000:300022d5 6e                   outsb  
1000:300022d6 646c                 insb   fs:
1000:300022d8 6557                 push   edi
1000:300022da 0000                 add    [eax], al
1000:300022dc 95                   xchg   eax, ebp
1000:300022dd 014765               add    [edi+65h], eax
1000:300022e0 7450                 jz     30002332h
1000:300022e2 726f                 jc     loc_30002353
1000:300022e4 636573               arpl   sp, [ebp+73h]
1000:300022e7 7348                 jnc    loc_30002331
1000:300022e9 6561                 popad  gs:
1000:300022eb 7000                 jo     loc_300022ed
1000:300022ed ;                                   XREFS First: 1000:300022eb Number : 1
1000:300022ed loc_300022ed:
1000:300022ed 00b801476574         add    [eax+74654701h], bh
1000:300022f3 53                   push   ebx
1000:300022f4 7973                 jns    30002369h
1000:300022f6 ;                                   XREFS First: 1000:30002284 Number : 1
1000:300022f6 loc_300022f6:
1000:300022f6 7465                 jz     3000235dh
1000:300022f8 ;                                   XREFS First: 1000:30002282 Number : 1
1000:300022f8 loc_300022f8:
1000:300022f8 6d                   insd   
1000:300022f9 54                   push   esp
1000:300022fa 696d6541734669       imul   ebp, [ebp+65h], 69467341h
1000:30002301 6c                   insb   
1000:30002302 6554                 push   esp
1000:30002304 696d6500360147       imul   ebp, [ebp+65h], 47013600h
1000:3000230b 657443               jz     30002351h
1000:3000230e 7572                 jnz    loc_30002382
1000:30002310 7265                 jc     30002377h
1000:30002312 6e                   outsb  
1000:30002313 7450                 jz     30002365h
1000:30002315 726f                 jc     30002386h
1000:30002317 636573               arpl   sp, [ebp+73h]
1000:3000231a 7349                 jnc    30002365h
1000:3000231c 640039               add    fs:[ecx], bh
1000:3000231f 014765               add    [edi+65h], eax
1000:30002322 7443                 jz     30002367h
1000:30002324 7572                 jnz    loc_30002398
1000:30002326 ;                                   XREFS First: 1000:300022b8 Number : 1
1000:30002326 loc_30002326:
1000:30002326 7265                 jc     3000238dh
1000:30002328 6e                   outsb  
1000:30002329 7454                 jz     loc_3000237f
1000:3000232b 6872656164           push   64616572h
1000:30002330 49                   dec    ecx
1000:30002331 ;                                   XREFS First: 1000:300022e7 Number : 1
1000:30002331 loc_30002331:
1000:30002331 640000               add    fs:[eax], al
1000:30002334 cb                   retf   
1000:30002335 01                   db     01h
1000:30002336 47                   db     47h     ;'G'
1000:30002337 65                   db     65h     ;'e'
1000:30002338 74                   db     74h     ;'t'
1000:30002339 54                   db     54h     ;'T'
1000:3000233a 69                   db     69h     ;'i'
1000:3000233b 63                   db     63h     ;'c'
1000:3000233c 6b                   db     6bh     ;'k'
1000:3000233d 43                   db     43h     ;'C'
1000:3000233e ;                                   XREFS First: 1000:300022d0 Number : 1
1000:3000233e loc_3000233e:
1000:3000233e 6f                   outsd  
1000:3000233f 756e                 jnz    loc_300023af
1000:30002341 7400                 jz     loc_30002343
1000:30002343 ;                                   XREFS First: 1000:30002341 Number : 1
1000:30002343 loc_30002343:
1000:30002343 008d02517565         add    [ebp+65755102h], cl
1000:30002349 7279                 jc     300023c4h
1000:3000234b 50                   push   eax
1000:3000234c 657266               jc     loc_300023b5
1000:3000234f 6f                   outsd  
1000:30002350 726d                 jc     300023bfh
1000:30002352 61                   popad  
1000:30002353 ;                                   XREFS First: 1000:300022e2 Number : 1
1000:30002353 loc_30002353:
1000:30002353 6e                   outsb  
1000:30002354 636543               arpl   sp, [ebp+43h]
1000:30002357 6f                   outsd  
1000:30002358 756e                 jnz    300023c8h
1000:3000235a 7465                 jz     300023c1h
1000:3000235c 7200                 jc     loc_3000235e
1000:3000235e ;                                   XREFS First: 1000:3000235c Number : 1
1000:3000235e loc_3000235e:
1000:3000235e 6b0356               imul   eax, [ebx], 56h
1000:30002361 69727475616c50       imul   esi, [edx+74h], 506c6175h
1000:30002368 726f                 jc     300023d9h
1000:3000236a 7465                 jz     loc_300023d1
1000:3000236c 63740000             arpl   si, [eax+00h][eax]
1000:30002370 2502497344           and    eax, 44734902h
1000:30002375 65627567             bound  esi, gs:[ebp+67h]
1000:30002379 67657250             jc     loc_300023cd
1000:3000237d 7265                 jc     loc_300023e4
1000:3000237f ;                                   XREFS First: 1000:30002329 Number : 1
1000:3000237f loc_3000237f:
1000:3000237f 7365                 jnc    loc_300023e6
1000:30002381 6e                   outsb  
1000:30002382 ;                                   XREFS First: 1000:3000230e Number : 1
1000:30002382 loc_30002382:
1000:30002382 7400                 jz     loc_30002384
1000:30002384 ;                                   XREFS First: 1000:30002382 Number : 1
1000:30002384 loc_30002384:
1000:30002384 ed                   in     eax, dx
1000:30002385 015265               add    [edx+65h], edx
1000:30002388 6751                 push   ecx
1000:3000238a 7565                 jnz    loc_300023f1
1000:3000238c 7279                 jc     30002407h
1000:3000238e 56                   push   esi
1000:3000238f 61                   popad  
1000:30002390 6c                   insb   
1000:30002391 7565                 jnz    loc_300023f8
1000:30002393 45                   inc    ebp
1000:30002394 7857                 js     300023edh
1000:30002396 0000                 add    [eax], al
1000:30002398 ;                                   XREFS First: 1000:30002324 Number : 1
1000:30002398 loc_30002398:
1000:30002398 c9                   leave  
1000:30002399 015265               add    [edx+65h], edx
1000:3000239c 6743                 inc    ebx
1000:3000239e 6c                   insb   
1000:3000239f 6f                   outsd  
1000:300023a0 7365                 jnc    30002407h
1000:300023a2 4b                   dec    ebx
1000:300023a3 657900               jns    loc_300023a6
1000:300023a6 ;                                   XREFS First: 1000:300023a4 Number : 1
1000:300023a6 loc_300023a6:
1000:300023a6 e301                 jcxz   loc_300023a9
1000:300023a8 52                   push   edx
1000:300023a9 ;                                   XREFS First: 1000:300023a6 Number : 1
1000:300023a9 loc_300023a9:
1000:300023a9 65674f               dec    edi
1000:300023ac 7065                 jo     30002413h
1000:300023ae 6e                   outsb  
1000:300023af ;                                   XREFS First: 1000:3000233f Number : 1
1000:300023af loc_300023af:
1000:300023af 4b                   dec    ebx
1000:300023b0 657945               jns    loc_300023f8
1000:300023b3 7857                 js     loc_3000240c
1000:300023b5 ;                                   XREFS First: 1000:3000234d Number : 1
1000:300023b5 loc_300023b5:
1000:300023b5 004e01               add    [esi+01h], cl
1000:300023b8 5f                   pop    edi
1000:300023b9 637274               arpl   si, [edx+74h]
1000:300023bc 5f                   pop    edi
1000:300023bd 6465627567           bound  esi, fs:[ebp+67h]
1000:300023c2 6765725f             jc     30002425h
1000:300023c6 686f6f6b00           push   6b6f6fh
1000:300023cb 00ed                 add    ch, ch
1000:300023cd ;                                   XREFS First: 1000:3000237b Number : 1
1000:300023cd loc_300023cd:
1000:300023cd 035f75               add    ebx, [edi+75h]
1000:300023d0 6e                   outsb  
1000:300023d1 ;                                   XREFS First: 1000:3000236a Number : 1
1000:300023d1 loc_300023d1:
1000:300023d1 6c                   insb   
1000:300023d2 6f                   outsd  
1000:300023d3 636b00               arpl   bp, [ebx+00h]
1000:300023d6 97                   xchg   eax, edi
1000:300023d7 005f5f               add    [edi+5fh], bl
1000:300023da 646c                 insb   fs:
1000:300023dc 6c                   insb   
1000:300023dd 6f                   outsd  
1000:300023de 6e                   outsb  
1000:300023df 657869               js     3000244bh
1000:300023e2 7400                 jz     loc_300023e4
1000:300023e4 ;                                   XREFS First: 1000:3000237d Number : 2
1000:300023e4 loc_300023e4:
1000:300023e4 7c02                 jl     loc_300023e8
1000:300023e6 ;                                   XREFS First: 1000:3000237f Number : 1
1000:300023e6 loc_300023e6:
1000:300023e6 5f                   pop    edi
1000:300023e7 6c                   insb   
1000:300023e8 ;                                   XREFS First: 1000:300023e4 Number : 1
1000:300023e8 loc_300023e8:
1000:300023e8 6f                   outsd  
1000:300023e9 636b00               arpl   bp, [ebx+00h]
1000:300023ec 2203                 and    al, [ebx]
1000:300023ee 5f                   pop    edi
1000:300023ef 6f                   outsd  
1000:300023f0 6e                   outsb  
1000:300023f1 ;                                   XREFS First: 1000:3000238a Number : 1
1000:300023f1 loc_300023f1:
1000:300023f1 657869               js     loc_3000245d
1000:300023f4 7400                 jz     loc_300023f6
1000:300023f6 ;                                   XREFS First: 1000:300023f4 Number : 1
1000:300023f6 loc_300023f6:
1000:300023f6 6301                 arpl   ax, [ecx]
1000:300023f8 ;                                   XREFS First: 1000:30002391 Number : 2
1000:300023f8 loc_300023f8:
1000:300023f8 5f                   pop    edi
1000:300023f9 6465636f64           arpl   bp, fs:[edi+64h]
1000:300023fe 655f                 pop    edi
1000:30002400 706f                 jo     30002471h
1000:30002402 696e7465720076       imul   ebp, [esi+74h], 76007265h
1000:30002409 015f65               add    [edi+65h], ebx
1000:3000240c ;                                   XREFS First: 1000:300023b3 Number : 1
1000:3000240c loc_3000240c:
1000:3000240c 7863                 js     30002471h
1000:3000240e 657074               jo     loc_30002485
1000:30002411 5f                   pop    edi
1000:30002412 68616e646c           push   6c646e61h
1000:30002417 657234               jc     loc_3000244e
1000:3000241a 5f                   pop    edi
1000:3000241b 636f6d               arpl   bp, [edi+6dh]
1000:3000241e 6d                   insd   
1000:3000241f 6f                   outsd  
1000:30002420 6e                   outsb  
1000:30002421 0011                 add    [ecx], dl
1000:30002423 025f69               add    bl, [edi+69h]
1000:30002426 6e                   outsb  
1000:30002427 766f                 jbe    loc_30002498
1000:30002429 6b655f77             imul   esp, [ebp+5fh], 77h
1000:3000242d 61                   popad  
1000:3000242e 7473                 jz     300024a3h
1000:30002430 6f                   outsd  
1000:30002431 6e                   outsb  
1000:30002432 0000                 add    [eax], al
1000:30002434 42                   inc    edx
1000:30002435 015f63               add    [edi+63h], ebx
1000:30002438 6f                   outsd  
1000:30002439 6e                   outsb  
1000:3000243a 7472                 jz     300024aeh
1000:3000243c 6f                   outsd  
1000:3000243d 6c                   insb   
1000:3000243e 66705f               jo     24a0h
1000:30002441 7300                 jnc    loc_30002443
1000:30002443 ;                                   XREFS First: 1000:30002441 Number : 1
1000:30002443 loc_30002443:
1000:30002443 006d01               add    [ebp+01h], ch
1000:30002446 5f                   pop    edi
1000:30002447 656e                 outsb  gs:
1000:30002449 636f64               arpl   bp, [edi+64h]
1000:3000244c 655f                 pop    edi
1000:3000244e ;                                   XREFS First: 1000:30002418 Number : 1
1000:3000244e loc_3000244e:
1000:3000244e 706f                 jo     300024bfh
1000:30002450 696e74657200d0       imul   ebp, [esi+74h], 0d0007265h
1000:30002457 005f5f               add    [edi+5fh], bl
1000:3000245a 705f                 jo     loc_300024bb
1000:3000245c 5f                   pop    edi
1000:3000245d ;                                   XREFS First: 1000:300023f2 Number : 1
1000:3000245d loc_3000245d:
1000:3000245d 666d                 insw   
1000:3000245f 6f                   outsd  
1000:30002460 64650000             add    fs:[eax], al
1000:30002464 cc                   int 3  
1000:30002465 005f5f               add    [edi+5fh], bl
1000:30002468 705f                 jo     loc_300024c9
1000:3000246a 5f                   pop    edi
1000:3000246b 636f6d               arpl   bp, [edi+6dh]
1000:3000246e 6d                   insd   
1000:3000246f 6f                   outsd  
1000:30002470 64650000             add    fs:[eax], al
1000:30002474 1101                 adc    [ecx], eax
1000:30002476 5f                   pop    edi
1000:30002477 61                   popad  
1000:30002478 646a75               push   75h
1000:3000247b 7374                 jnc    300024f1h
1000:3000247d 5f                   pop    edi
1000:3000247e 666469760000e9       imul   si, fs:[esi+00h], 0e900h
1000:30002485 ;                                   XREFS First: 1000:3000240f Number : 1
1000:30002485 loc_30002485:
1000:30002485 005f5f               add    [edi+5fh], bl
1000:30002488 7365                 jnc    loc_300024ef
1000:3000248a 7475                 jz     30002501h
1000:3000248c 7365                 jnc    300024f3h
1000:3000248e 726d                 jc     300024fdh
1000:30002490 61                   popad  
1000:30002491 7468                 jz     300024fbh
1000:30002493 657272               jc     30002508h
1000:30002496 0000                 add    [eax], al
1000:30002498 ;                                   XREFS First: 1000:30002427 Number : 1
1000:30002498 loc_30002498:
1000:30002498 3f                   aas    
1000:30002499 015f63               add    [edi+63h], ebx
1000:3000249c 6f                   outsd  
1000:3000249d 6e                   outsb  
1000:3000249e 666967746872         imul   sp, [edi+74h], 7268h
1000:300024a4 6561                 popad  gs:
1000:300024a6 646c                 insb   fs:
1000:300024a8 6f                   outsd  
1000:300024a9 63616c               arpl   sp, [ecx+6ch]
1000:300024ac 65000b               add    gs:[ebx], cl
1000:300024af 025f69               add    bl, [edi+69h]
1000:300024b2 6e                   outsb  
1000:300024b3 69747465726d5f65     imul   esi, [esp+65h][esi*2], 655f6d72h
1000:300024bb ;                                   XREFS First: 1000:3000245a Number : 1
1000:300024bb loc_300024bb:
1000:300024bb 000a                 add    [edx], cl
1000:300024bd 025f69               add    bl, [edi+69h]
1000:300024c0 6e                   outsb  
1000:300024c1 69747465726d0003     imul   esi, [esp+65h][esi*2], 3006d72h
1000:300024c9 ;                                   XREFS First: 1000:30002468 Number : 1
1000:300024c9 loc_300024c9:
1000:300024c9 015f61               add    [edi+61h], ebx
1000:300024cc 636d64               arpl   bp, [ebp+64h]
1000:300024cf 6c                   insb   
1000:300024d0 6e                   outsb  
1000:300024d1 00d6                 add    dh, dl
1000:300024d3 0465                 add    al, 65h
1000:300024d5 7869                 js     loc_30002540
1000:300024d7 7400                 jz     loc_300024d9
1000:300024d9 ;                                   XREFS First: 1000:300024d7 Number : 1
1000:300024d9 loc_300024d9:
1000:300024d9 002b                 add    [ebx], ch
1000:300024db 025f69               add    bl, [edi+69h]
1000:300024de 736d                 jnc    3000254dh
1000:300024e0 62626c               bound  esp, [edx+6ch]
1000:300024e3 6561                 popad  gs:
1000:300024e5 640000               add    fs:[eax], al
1000:300024e8 67005f58             add    [bx+58h], bl
1000:300024ec 637074               arpl   si, [eax+74h]
1000:300024ef ;                                   XREFS First: 1000:30002488 Number : 1
1000:300024ef loc_300024ef:
1000:300024ef 46                   inc    esi
1000:300024f0 696c746572007f01     imul   ebp, [esp+65h][esi*2], 17f0072h
1000:300024f8 5f                   pop    edi
1000:300024f9 657869               js     30002565h
1000:300024fc 7400                 jz     loc_300024fe
1000:300024fe ;                                   XREFS First: 1000:300024fc Number : 1
1000:300024fe loc_300024fe:
1000:300024fe 2f                   das    
1000:300024ff 015f63               add    [edi+63h], ebx
1000:30002502 657869               js     loc_3000256e
1000:30002505 7400                 jz     loc_30002507
1000:30002507 ;                                   XREFS First: 1000:30002505 Number : 1
1000:30002507 loc_30002507:
1000:30002507 00a0005f5f67         add    [eax+675f5f00h], ah
1000:3000250d 65746d               jz     loc_3000257d
1000:30002510 61                   popad  
1000:30002511 696e6172677300       imul   ebp, [esi+61h], 736772h
1000:30002518 1801                 sbb    [ecx], al
1000:3000251a 5f                   pop    edi
1000:3000251b 61                   popad  
1000:3000251c 6d                   insd   
1000:3000251d 7367                 jnc    30002586h
1000:3000251f 5f                   pop    edi
1000:30002520 657869               js     loc_3000258c
1000:30002523 7400                 jz     loc_30002525
1000:30002525 ;                                   XREFS First: 1000:30002523 Number : 1
1000:30002525 loc_30002525:
1000:30002525 00e6                 add    dh, ah
1000:30002527 005f5f               add    [edi+5fh], bl
1000:3000252a 7365                 jnc    loc_30002591
1000:3000252c 745f                 jz     3000258dh
1000:3000252e 61                   popad  
1000:3000252f 7070                 jo     loc_300025a1
1000:30002531 5f                   pop    edi
1000:30002532 7479                 jz     loc_300025ad
1000:30002534 7065                 jo     3000259bh
1000:30002536 0000                 add    [eax], al
1000:30002538 0000                 add    [eax], al
1000:3000253a 0000                 add    [eax], al
1000:3000253c 57                   push   edi
1000:3000253d 3e654c               dec    esp
1000:30002540 ;                                   XREFS First: 1000:300024d5 Number : 1
1000:30002540 loc_30002540:
1000:30002540 0000                 add    [eax], al
1000:30002542 0000                 add    [eax], al
1000:30002544 0200                 add    al, [eax]
1000:30002546 0000                 add    [eax], al
1000:30002548 60                   pushad 
1000:30002549 0000                 add    [eax], al
1000:3000254b 00742500             add    [ebp+00h], dh
1000:3000254f 00741900             add    [ecx+00h][ebx], dh
1000:30002553 0000                 add    [eax], al
1000:30002555 0000                 add    [eax], al
1000:30002557 00573e               add    [edi+3eh], dl
1000:3000255a 654c                 dec    esp
1000:3000255c 2b02                 sub    eax, [edx]
1000:3000255e fa                   cli    
1000:3000255f 100a                 adc    [edx], cl
1000:30002561 0000                 add    [eax], al
1000:30002563 000400               add    [eax][eax], al
1000:30002566 0000                 add    [eax], al
1000:30002568 7025                 jo     loc_3000258f
1000:3000256a 0000                 add    [eax], al
1000:3000256c 7019                 jo     30002587h
1000:3000256e ;                                   XREFS First: 1000:30002503 Number : 1
1000:3000256e loc_3000256e:
1000:3000256e 0000                 add    [eax], al
1000:30002570 fa                   cli    
1000:30002571 1001                 adc    [ecx], al
1000:30002573 bb52534453           mov    ebx, 53445352h
1000:30002578 686d55a6ce           push   0cea6556dh
1000:3000257d ;                                   XREFS First: 1000:3000250e Number : 1
1000:3000257d loc_3000257d:
1000:3000257d 3481                 xor    al, 81h
1000:3000257f 46                   inc    esi
1000:30002580 aa                   stosb  
1000:30002581 845602               test   [esi+02h], dl
1000:30002584 87a29f2a0200         xchg   [edx+22a9fh], esp
1000:3000258a 0000                 add    [eax], al
1000:3000258c ;                                   XREFS First: 1000:30002521 Number : 1
1000:3000258c loc_3000258c:
1000:3000258c 743a                 jz     300025c8h
1000:3000258e 5c                   pop    esp
1000:3000258f ;                                   XREFS First: 1000:30002568 Number : 1
1000:3000258f loc_3000258f:
1000:3000258f 776f                 ja     30002600h
1000:30002591 ;                                   XREFS First: 1000:3000252a Number : 1
1000:30002591 loc_30002591:
1000:30002591 7264                 jc     300025f7h
1000:30002593 5c                   pop    esp
1000:30002594 7838                 js     loc_300025ce
1000:30002596 365c                 pop    esp
1000:30002598 7368                 jnc    30002602h
1000:3000259a 69705c305c7769       imul   esi, [eax+5ch], 69775c30h
1000:300025a1 ;                                   XREFS First: 1000:3000252f Number : 1
1000:300025a1 loc_300025a1:
1000:300025a1 6e                   outsb  
1000:300025a2 776f                 ja     30002613h
1000:300025a4 7264                 jc     3000260ah
1000:300025a6 2e7064               jo     3000260dh
1000:300025a9 6200                 bound  eax, [eax]
1000:300025ab 365c                 pop    esp
1000:300025ad ;                                   XREFS First: 1000:30002532 Number : 1
1000:300025ad loc_300025ad:
1000:300025ad 7368                 jnc    30002617h
1000:300025af 69705c305c7769       imul   esi, [eax+5ch], 69775c30h
1000:300025b6 6e                   outsb  
1000:300025b7 776f                 ja     30002628h
1000:300025b9 7264                 jc     3000261fh
1000:300025bb 2e657865             js     30002624h
1000:300025bf 5c                   pop    esp
1000:300025c0 626274               bound  esp, [edx+74h]
1000:300025c3 6f                   outsd  
1000:300025c4 7074                 jo     3000263ah
1000:300025c6 5c                   pop    esp
1000:300025c7 7769                 ja     30002632h
1000:300025c9 6e                   outsb  
1000:300025ca 776f                 ja     3000263bh
1000:300025cc 7264                 jc     30002632h
1000:300025ce ;                                   XREFS First: 1000:30002594 Number : 1
1000:300025ce loc_300025ce:
1000:300025ce 4f                   dec    edi
1000:300025cf 2e7064               jo     30002636h
1000:300025d2 6200                 bound  eax, [eax]
1000:300025d4 0000                 add    [eax], al
1000:300025d6 0000                 add    [eax], al
1000:300025d8 0000                 add    [eax], al
1000:300025da 0000                 add    [eax], al
1000:300025dc 0000                 add    [eax], al
1000:300025de 0000                 add    [eax], al
1000:300025e0 0000                 add    [eax], al
1000:300025e2 0000                 add    [eax], al
1000:300025e4 0000                 add    [eax], al
1000:300025e6 0000                 add    [eax], al
1000:300025e8 0000                 add    [eax], al
1000:300025ea 0000                 add    [eax], al
1000:300025ec 0000                 add    [eax], al
1000:300025ee 0000                 add    [eax], al
1000:300025f0 0000                 add    [eax], al
1000:300025f2 0000                 add    [eax], al
1000:300025f4 0000                 add    [eax], al
1000:300025f6 0000                 add    [eax], al
1000:300025f8 0000                 add    [eax], al
1000:300025fa 0000                 add    [eax], al
1000:300025fc 0000                 add    [eax], al
1000:300025fe 0000                 add    [eax], al
1000:30003000 ;-----------------------------------------------------------------------
1000:30003000 ;Segment : 1000h     Offset : 30003000h     Size : 200h
1000:30003000 ;32-bit Data
1000:30003000 ;-----------------------------------------------------------------------
1000:30003000 ;                                   XREFS First: 1000:30001187 Number : 2
1000:30003000 loc_30003000:
1000:30003000 b1                   db     0b1h
1000:30003001 19                   db     19h
1000:30003002 bf                   db     0bfh
1000:30003003 44                   db     44h     ;'D'
1000:30003004 fe                   db     0feh
1000:30003005 ff                   db     0ffh
1000:30003006 ff                   db     0ffh
1000:30003007 ff                   db     0ffh
1000:30003008 01                   db     01h
1000:30003009 00                   db     00h
1000:3000300a 00                   db     00h
1000:3000300b 00                   db     00h
1000:3000300c ;                                   XREFS First: 1000:300015d8 Number : 2
1000:3000300c loc_3000300c:
1000:3000300c 00000000             dd     offset 00h
1000:30003010 ;                                   XREFS First: 1000:300015cf Number : 3
1000:30003010 loc_30003010:
1000:30003010 00000000             dd     offset 00h
1000:30003014 00                   db     00h
1000:30003015 00                   db     00h
1000:30003016 00                   db     00h
1000:30003017 00                   db     00h
1000:30003018 00                   db     00h
1000:30003019 00                   db     00h
1000:3000301a 00                   db     00h
1000:3000301b 00                   db     00h
1000:3000301c 00                   db     00h
1000:3000301d 00                   db     00h
1000:3000301e 00                   db     00h
1000:3000301f 00                   db     00h
1000:30003020 ;                                   XREFS First: 1000:3000193b Number : 1
1000:30003020 loc_30003020:
1000:30003020 00                   db     00h
1000:30003021 00                   db     00h
1000:30003022 00                   db     00h
1000:30003023 00                   db     00h
1000:30003024 00                   db     00h
1000:30003025 00                   db     00h
1000:30003026 00                   db     00h
1000:30003027 00                   db     00h
1000:30003028 00                   db     00h
1000:30003029 00                   db     00h
1000:3000302a 00                   db     00h
1000:3000302b 00                   db     00h
1000:3000302c 00                   db     00h
1000:3000302d 00                   db     00h
1000:3000302e 00                   db     00h
1000:3000302f 00                   db     00h
1000:30003030 00                   db     00h
1000:30003031 00                   db     00h
1000:30003032 00                   db     00h
1000:30003033 00                   db     00h
1000:30003034 00                   db     00h
1000:30003035 00                   db     00h
1000:30003036 00                   db     00h
1000:30003037 00                   db     00h
1000:30003038 00                   db     00h
1000:30003039 00                   db     00h
1000:3000303a 00                   db     00h
1000:3000303b 00                   db     00h
1000:3000303c 00                   db     00h
1000:3000303d 00                   db     00h
1000:3000303e 00                   db     00h
1000:3000303f 00                   db     00h
1000:30003040 ;                                   XREFS First: 1000:30001212 Number : 5
1000:30003040 loc_30003040:
1000:30003040 00                   db     00h
1000:30003041 00                   db     00h
1000:30003042 00                   db     00h
1000:30003043 00                   db     00h
1000:30003044 ;                                   XREFS First: 1000:300011f8 Number : 1
1000:30003044 loc_30003044:
1000:30003044 00                   db     00h
1000:30003045 00                   db     00h
1000:30003046 00                   db     00h
1000:30003047 00                   db     00h
1000:30003048 00                   db     00h
1000:30003049 00                   db     00h
1000:3000304a 00                   db     00h
1000:3000304b 00                   db     00h
1000:3000304c 00                   db     00h
1000:3000304d 00                   db     00h
1000:3000304e 00                   db     00h
1000:3000304f 00                   db     00h
1000:30003050 ;                                   XREFS First: 1000:3000127b Number : 3
1000:30003050 loc_30003050:
1000:30003050 00000000             dd     offset 00h
1000:30003054 ;                                   XREFS First: 1000:30001936 Number : 2
1000:30003054 loc_30003054:
1000:30003054 00                   db     00h
1000:30003055 00                   db     00h
1000:30003056 00                   db     00h
1000:30003057 00                   db     00h
1000:30003058 ;                                   XREFS First: 1000:30001578 Number : 2
1000:30003058 loc_30003058:
1000:30003058 00                   db     00h
1000:30003059 00                   db     00h
1000:3000305a 00                   db     00h
1000:3000305b 00                   db     00h
1000:3000305c 00                   db     00h
1000:3000305d 00                   db     00h
1000:3000305e 00                   db     00h
1000:3000305f 00                   db     00h
1000:30003060 ;                                   XREFS First: 1000:30001dcc Number : 1
1000:30003060 loc_30003060:
1000:30003060 00                   db     00h
1000:30003061 00                   db     00h
1000:30003062 00                   db     00h
1000:30003063 00                   db     00h
1000:30003064 ;                                   XREFS First: 1000:30001dd6 Number : 1
1000:30003064 loc_30003064:
1000:30003064 00                   db     00h
1000:30003065 00                   db     00h
1000:30003066 00                   db     00h
1000:30003067 00                   db     00h
1000:30003068 00                   db     00h
1000:30003069 00                   db     00h
1000:3000306a 00                   db     00h
1000:3000306b 00                   db     00h
1000:3000306c ;                                   XREFS First: 1000:30001dc7 Number : 1
1000:3000306c loc_3000306c:
1000:3000306c 00                   db     00h
1000:3000306d 00                   db     00h
1000:3000306e 00                   db     00h
1000:3000306f 00                   db     00h
1000:30003070 00                   db     00h
1000:30003071 00                   db     00h
1000:30003072 00                   db     00h
1000:30003073 00                   db     00h
1000:30003074 00                   db     00h
1000:30003075 00                   db     00h
1000:30003076 00                   db     00h
1000:30003077 00                   db     00h
1000:30003078 00                   db     00h
1000:30003079 00                   db     00h
1000:3000307a 00                   db     00h
1000:3000307b 00                   db     00h
1000:3000307c 00                   db     00h
1000:3000307d 00                   db     00h
1000:3000307e 00                   db     00h
1000:3000307f 00                   db     00h
1000:30003080 00                   db     00h
1000:30003081 00                   db     00h
1000:30003082 00                   db     00h
1000:30003083 00                   db     00h
1000:30003084 00                   db     00h
1000:30003085 00                   db     00h
1000:30003086 00                   db     00h
1000:30003087 00                   db     00h
1000:30003088 00                   db     00h
1000:30003089 00                   db     00h
1000:3000308a 00                   db     00h
1000:3000308b 00                   db     00h
1000:3000308c 00                   db     00h
1000:3000308d 00                   db     00h
1000:3000308e 00                   db     00h
1000:3000308f 00                   db     00h
1000:30003090 00                   db     00h
1000:30003091 00                   db     00h
1000:30003092 00                   db     00h
1000:30003093 00                   db     00h
1000:30003094 00                   db     00h
1000:30003095 00                   db     00h
1000:30003096 00                   db     00h
1000:30003097 00                   db     00h
1000:30003098 00                   db     00h
1000:30003099 00                   db     00h
1000:3000309a 00                   db     00h
1000:3000309b 00                   db     00h
1000:3000309c 00                   db     00h
1000:3000309d 00                   db     00h
1000:3000309e 00                   db     00h
1000:3000309f 00                   db     00h
1000:300030a0 00                   db     00h
1000:300030a1 00                   db     00h
1000:300030a2 00                   db     00h
1000:300030a3 00                   db     00h
1000:300030a4 00                   db     00h
1000:300030a5 00                   db     00h
1000:300030a6 00                   db     00h
1000:300030a7 00                   db     00h
1000:300030a8 00                   db     00h
1000:300030a9 00                   db     00h
1000:300030aa 00                   db     00h
1000:300030ab 00                   db     00h
1000:300030ac 00                   db     00h
1000:300030ad 00                   db     00h
1000:300030ae 00                   db     00h
1000:300030af 00                   db     00h
1000:300030b0 ;                                   XREFS First: 1000:30001dfc Number : 2
1000:300030b0 loc_300030b0:
1000:300030b0 00                   db     00h
1000:300030b1 00                   db     00h
1000:300030b2 00                   db     00h
1000:300030b3 00                   db     00h
1000:300030b4 00                   db     00h
1000:300030b5 00                   db     00h
1000:300030b6 00                   db     00h
1000:300030b7 00                   db     00h
1000:300030b8 ;                                   XREFS First: 1000:30001db8 Number : 1
1000:300030b8 loc_300030b8:
1000:300030b8 00                   db     00h
1000:300030b9 00                   db     00h
1000:300030ba 00                   db     00h
1000:300030bb 00                   db     00h
1000:300030bc 00                   db     00h
1000:300030bd 00                   db     00h
1000:300030be 00                   db     00h
1000:300030bf 00                   db     00h
1000:300030c0 00                   db     00h
1000:300030c1 00                   db     00h
1000:300030c2 00                   db     00h
1000:300030c3 00                   db     00h
1000:300030c4 00                   db     00h
1000:300030c5 00                   db     00h
1000:300030c6 00                   db     00h
1000:300030c7 00                   db     00h
1000:300030c8 00                   db     00h
1000:300030c9 00                   db     00h
1000:300030ca 00                   db     00h
1000:300030cb 00                   db     00h
1000:300030cc 00                   db     00h
1000:300030cd 00                   db     00h
1000:300030ce 00                   db     00h
1000:300030cf 00                   db     00h
1000:300030d0 00                   db     00h
1000:300030d1 00                   db     00h
1000:300030d2 00                   db     00h
1000:300030d3 00                   db     00h
1000:300030d4 00                   db     00h
1000:300030d5 00                   db     00h
1000:300030d6 00                   db     00h
1000:300030d7 00                   db     00h
1000:300030d8 00                   db     00h
1000:300030d9 00                   db     00h
1000:300030da 00                   db     00h
1000:300030db 00                   db     00h
1000:300030dc 00                   db     00h
1000:300030dd 00                   db     00h
1000:300030de 00                   db     00h
1000:300030df 00                   db     00h
1000:300030e0 00                   db     00h
1000:300030e1 00                   db     00h
1000:300030e2 00                   db     00h
1000:300030e3 00                   db     00h
1000:300030e4 00                   db     00h
1000:300030e5 00                   db     00h
1000:300030e6 00                   db     00h
1000:300030e7 00                   db     00h
1000:300030e8 00                   db     00h
1000:300030e9 00                   db     00h
1000:300030ea 00                   db     00h
1000:300030eb 00                   db     00h
1000:300030ec 00                   db     00h
1000:300030ed 00                   db     00h
1000:300030ee 00                   db     00h
1000:300030ef 00                   db     00h
1000:300030f0 00                   db     00h
1000:300030f1 00                   db     00h
1000:300030f2 00                   db     00h
1000:300030f3 00                   db     00h
1000:300030f4 00                   db     00h
1000:300030f5 00                   db     00h
1000:300030f6 00                   db     00h
1000:300030f7 00                   db     00h
1000:300030f8 00                   db     00h
1000:300030f9 00                   db     00h
1000:300030fa 00                   db     00h
1000:300030fb 00                   db     00h
1000:300030fc 00                   db     00h
1000:300030fd 00                   db     00h
1000:300030fe 00                   db     00h
1000:300030ff 00                   db     00h
1000:30003100 00                   db     00h
1000:30003101 00                   db     00h
1000:30003102 00                   db     00h
1000:30003103 00                   db     00h
1000:30003104 00                   db     00h
1000:30003105 00                   db     00h
1000:30003106 00                   db     00h
1000:30003107 00                   db     00h
1000:30003108 00                   db     00h
1000:30003109 00                   db     00h
1000:3000310a 00                   db     00h
1000:3000310b 00                   db     00h
1000:3000310c 00                   db     00h
1000:3000310d 00                   db     00h
1000:3000310e 00                   db     00h
1000:3000310f 00                   db     00h
1000:30003110 00                   db     00h
1000:30003111 00                   db     00h
1000:30003112 00                   db     00h
1000:30003113 00                   db     00h
1000:30003114 00                   db     00h
1000:30003115 00                   db     00h
1000:30003116 00                   db     00h
1000:30003117 00                   db     00h
1000:30003118 00                   db     00h
1000:30003119 00                   db     00h
1000:3000311a 00                   db     00h
1000:3000311b 00                   db     00h
1000:3000311c 00                   db     00h
1000:3000311d 00                   db     00h
1000:3000311e 00                   db     00h
1000:3000311f 00                   db     00h
1000:30003120 00                   db     00h
1000:30003121 00                   db     00h
1000:30003122 00                   db     00h
1000:30003123 00                   db     00h
1000:30003124 00                   db     00h
1000:30003125 00                   db     00h
1000:30003126 00                   db     00h
1000:30003127 00                   db     00h
1000:30003128 00                   db     00h
1000:30003129 00                   db     00h
1000:3000312a 00                   db     00h
1000:3000312b 00                   db     00h
1000:3000312c 00                   db     00h
1000:3000312d 00                   db     00h
1000:3000312e 00                   db     00h
1000:3000312f 00                   db     00h
1000:30003130 00                   db     00h
1000:30003131 00                   db     00h
1000:30003132 00                   db     00h
1000:30003133 00                   db     00h
1000:30003134 00                   db     00h
1000:30003135 00                   db     00h
1000:30003136 00                   db     00h
1000:30003137 00                   db     00h
1000:30003138 00                   db     00h
1000:30003139 00                   db     00h
1000:3000313a 00                   db     00h
1000:3000313b 00                   db     00h
1000:3000313c 00                   db     00h
1000:3000313d 00                   db     00h
1000:3000313e 00                   db     00h
1000:3000313f 00                   db     00h
1000:30003140 00                   db     00h
1000:30003141 00                   db     00h
1000:30003142 00                   db     00h
1000:30003143 00                   db     00h
1000:30003144 ;                                   XREFS First: 1000:30001d8d Number : 1
1000:30003144 loc_30003144:
1000:30003144 00                   db     00h
1000:30003145 00                   db     00h
1000:30003146 00                   db     00h
1000:30003147 00                   db     00h
1000:30003148 ;                                   XREFS First: 1000:30001d86 Number : 1
1000:30003148 loc_30003148:
1000:30003148 00                   db     00h
1000:30003149 00                   db     00h
1000:3000314a 00                   db     00h
1000:3000314b 00                   db     00h
1000:3000314c ;                                   XREFS First: 1000:30001d7f Number : 1
1000:3000314c loc_3000314c:
1000:3000314c 00                   db     00h
1000:3000314d 00                   db     00h
1000:3000314e 00                   db     00h
1000:3000314f 00                   db     00h
1000:30003150 ;                                   XREFS First: 1000:30001d78 Number : 1
1000:30003150 loc_30003150:
1000:30003150 00                   db     00h
1000:30003151 00                   db     00h
1000:30003152 00                   db     00h
1000:30003153 00                   db     00h
1000:30003154 ;                                   XREFS First: 1000:30001d63 Number : 1
1000:30003154 loc_30003154:
1000:30003154 00                   db     00h
1000:30003155 00                   db     00h
1000:30003156 00                   db     00h
1000:30003157 00                   db     00h
1000:30003158 ;                                   XREFS First: 1000:30001d5d Number : 1
1000:30003158 loc_30003158:
1000:30003158 00                   db     00h
1000:30003159 00                   db     00h
1000:3000315a 00                   db     00h
1000:3000315b 00                   db     00h
1000:3000315c ;                                   XREFS First: 1000:30001d57 Number : 1
1000:3000315c loc_3000315c:
1000:3000315c 00                   db     00h
1000:3000315d 00                   db     00h
1000:3000315e 00                   db     00h
1000:3000315f 00                   db     00h
1000:30003160 ;                                   XREFS First: 1000:30001d51 Number : 1
1000:30003160 loc_30003160:
1000:30003160 00                   db     00h
1000:30003161 00                   db     00h
1000:30003162 00                   db     00h
1000:30003163 00                   db     00h
1000:30003164 ;                                   XREFS First: 1000:30001d4b Number : 1
1000:30003164 loc_30003164:
1000:30003164 00                   db     00h
1000:30003165 00                   db     00h
1000:30003166 00                   db     00h
1000:30003167 00                   db     00h
1000:30003168 ;                                   XREFS First: 1000:30001d46 Number : 1
1000:30003168 loc_30003168:
1000:30003168 00                   db     00h
1000:30003169 00                   db     00h
1000:3000316a 00                   db     00h
1000:3000316b 00                   db     00h
1000:3000316c ;                                   XREFS First: 1000:30001d9d Number : 1
1000:3000316c loc_3000316c:
1000:3000316c 00                   db     00h
1000:3000316d 00                   db     00h
1000:3000316e 00                   db     00h
1000:3000316f 00                   db     00h
1000:30003170 ;                                   XREFS First: 1000:30001da5 Number : 2
1000:30003170 loc_30003170:
1000:30003170 00                   db     00h
1000:30003171 00                   db     00h
1000:30003172 00                   db     00h
1000:30003173 00                   db     00h
1000:30003174 ;                                   XREFS First: 1000:30001d71 Number : 1
1000:30003174 loc_30003174:
1000:30003174 00                   db     00h
1000:30003175 00                   db     00h
1000:30003176 00                   db     00h
1000:30003177 00                   db     00h
1000:30003178 ;                                   XREFS First: 1000:30001d94 Number : 1
1000:30003178 loc_30003178:
1000:30003178 00                   db     00h
1000:30003179 00                   db     00h
1000:3000317a 00                   db     00h
1000:3000317b 00                   db     00h
1000:3000317c ;                                   XREFS First: 1000:30001dad Number : 1
1000:3000317c loc_3000317c:
1000:3000317c 00                   db     00h
1000:3000317d 00                   db     00h
1000:3000317e 00                   db     00h
1000:3000317f 00                   db     00h
1000:30003180 ;                                   XREFS First: 1000:30001d6a Number : 1
1000:30003180 loc_30003180:
1000:30003180 00                   db     00h
1000:30003181 00                   db     00h
1000:30003182 00                   db     00h
1000:30003183 00                   db     00h
1000:30003184 00                   db     00h
1000:30003185 00                   db     00h
1000:30003186 00                   db     00h
1000:30003187 00                   db     00h
1000:30003188 00                   db     00h
1000:30003189 00                   db     00h
1000:3000318a 00                   db     00h
1000:3000318b 00                   db     00h
1000:3000318c 00                   db     00h
1000:3000318d 00                   db     00h
1000:3000318e 00                   db     00h
1000:3000318f 00                   db     00h
1000:30003190 00                   db     00h
1000:30003191 00                   db     00h
1000:30003192 00                   db     00h
1000:30003193 00                   db     00h
1000:30003194 00                   db     00h
1000:30003195 00                   db     00h
1000:30003196 00                   db     00h
1000:30003197 00                   db     00h
1000:30003198 00                   db     00h
1000:30003199 00                   db     00h
1000:3000319a 00                   db     00h
1000:3000319b 00                   db     00h
1000:3000319c 00                   db     00h
1000:3000319d 00                   db     00h
1000:3000319e 00                   db     00h
1000:3000319f 00                   db     00h
1000:300031a0 00                   db     00h
1000:300031a1 00                   db     00h
1000:300031a2 00                   db     00h
1000:300031a3 00                   db     00h
1000:300031a4 00                   db     00h
1000:300031a5 00                   db     00h
1000:300031a6 00                   db     00h
1000:300031a7 00                   db     00h
1000:300031a8 00                   db     00h
1000:300031a9 00                   db     00h
1000:300031aa 00                   db     00h
1000:300031ab 00                   db     00h
1000:300031ac 00                   db     00h
1000:300031ad 00                   db     00h
1000:300031ae 00                   db     00h
1000:300031af 00                   db     00h
1000:300031b0 00                   db     00h
1000:300031b1 00                   db     00h
1000:300031b2 00                   db     00h
1000:300031b3 00                   db     00h
1000:300031b4 00                   db     00h
1000:300031b5 00                   db     00h
1000:300031b6 00                   db     00h
1000:300031b7 00                   db     00h
1000:300031b8 00                   db     00h
1000:300031b9 00                   db     00h
1000:300031ba 00                   db     00h
1000:300031bb 00                   db     00h
1000:300031bc 00                   db     00h
1000:300031bd 00                   db     00h
1000:300031be 00                   db     00h
1000:300031bf 00                   db     00h
1000:300031c0 00                   db     00h
1000:300031c1 00                   db     00h
1000:300031c2 00                   db     00h
1000:300031c3 00                   db     00h
1000:300031c4 00                   db     00h
1000:300031c5 00                   db     00h
1000:300031c6 00                   db     00h
1000:300031c7 00                   db     00h
1000:300031c8 00                   db     00h
1000:300031c9 00                   db     00h
1000:300031ca 00                   db     00h
1000:300031cb 00                   db     00h
1000:300031cc 00                   db     00h
1000:300031cd 00                   db     00h
1000:300031ce 00                   db     00h
1000:300031cf 00                   db     00h
1000:300031d0 00                   db     00h
1000:300031d1 00                   db     00h
1000:300031d2 00                   db     00h
1000:300031d3 00                   db     00h
1000:300031d4 00                   db     00h
1000:300031d5 00                   db     00h
1000:300031d6 00                   db     00h
1000:300031d7 00                   db     00h
1000:300031d8 00                   db     00h
1000:300031d9 00                   db     00h
1000:300031da 00                   db     00h
1000:300031db 00                   db     00h
1000:300031dc 00                   db     00h
1000:300031dd 00                   db     00h
1000:300031de 00                   db     00h
1000:300031df 00                   db     00h
1000:300031e0 00                   db     00h
1000:300031e1 00                   db     00h
1000:300031e2 00                   db     00h
1000:300031e3 00                   db     00h
1000:300031e4 00                   db     00h
1000:300031e5 00                   db     00h
1000:300031e6 00                   db     00h
1000:300031e7 00                   db     00h
1000:300031e8 00                   db     00h
1000:300031e9 00                   db     00h
1000:300031ea 00                   db     00h
1000:300031eb 00                   db     00h
1000:300031ec 00                   db     00h
1000:300031ed 00                   db     00h
1000:300031ee 00                   db     00h
1000:300031ef 00                   db     00h
1000:300031f0 00                   db     00h
1000:300031f1 00                   db     00h
1000:300031f2 00                   db     00h
1000:300031f3 00                   db     00h
1000:300031f4 00                   db     00h
1000:300031f5 00                   db     00h
1000:300031f6 00                   db     00h
1000:300031f7 00                   db     00h
1000:300031f8 00                   db     00h
1000:300031f9 00                   db     00h
1000:300031fa 00                   db     00h
1000:300031fb 00                   db     00h
1000:300031fc 00                   db     00h
1000:300031fd 00                   db     00h
1000:300031fe 00                   db     00h
1000:300031ff 00                   db     00h
1000:30003200 ;-----------------------------------------------------------------------
1000:30003200 ;Segment : 1000h     Offset : 30003200h     Size : 184h
1000:30003200 ;Uninit Data
1000:30003200 ;-----------------------------------------------------------------------
1000:30003200 ??                   db     ?
1000:30003201 ??                   db     ?
1000:30003202 ??                   db     ?
1000:30003203 ??                   db     ?
1000:30003204 ??                   db     ?
1000:30003205 ??                   db     ?
1000:30003206 ??                   db     ?
1000:30003207 ??                   db     ?
1000:30003208 ??                   db     ?
1000:30003209 ??                   db     ?
1000:3000320a ??                   db     ?
1000:3000320b ??                   db     ?
1000:3000320c ??                   db     ?
1000:3000320d ??                   db     ?
1000:3000320e ??                   db     ?
1000:3000320f ??                   db     ?
1000:30003210 ??                   db     ?
1000:30003211 ??                   db     ?
1000:30003212 ??                   db     ?
1000:30003213 ??                   db     ?
1000:30003214 ??                   db     ?
1000:30003215 ??                   db     ?
1000:30003216 ??                   db     ?
1000:30003217 ??                   db     ?
1000:30003218 ??                   db     ?
1000:30003219 ??                   db     ?
1000:3000321a ??                   db     ?
1000:3000321b ??                   db     ?
1000:3000321c ??                   db     ?
1000:3000321d ??                   db     ?
1000:3000321e ??                   db     ?
1000:3000321f ??                   db     ?
1000:30003220 ??                   db     ?
1000:30003221 ??                   db     ?
1000:30003222 ??                   db     ?
1000:30003223 ??                   db     ?
1000:30003224 ??                   db     ?
1000:30003225 ??                   db     ?
1000:30003226 ??                   db     ?
1000:30003227 ??                   db     ?
1000:30003228 ??                   db     ?
1000:30003229 ??                   db     ?
1000:3000322a ??                   db     ?
1000:3000322b ??                   db     ?
1000:3000322c ??                   db     ?
1000:3000322d ??                   db     ?
1000:3000322e ??                   db     ?
1000:3000322f ??                   db     ?
1000:30003230 ??                   db     ?
1000:30003231 ??                   db     ?
1000:30003232 ??                   db     ?
1000:30003233 ??                   db     ?
1000:30003234 ??                   db     ?
1000:30003235 ??                   db     ?
1000:30003236 ??                   db     ?
1000:30003237 ??                   db     ?
1000:30003238 ??                   db     ?
1000:30003239 ??                   db     ?
1000:3000323a ??                   db     ?
1000:3000323b ??                   db     ?
1000:3000323c ??                   db     ?
1000:3000323d ??                   db     ?
1000:3000323e ??                   db     ?
1000:3000323f ??                   db     ?
1000:30003240 ??                   db     ?
1000:30003241 ??                   db     ?
1000:30003242 ??                   db     ?
1000:30003243 ??                   db     ?
1000:30003244 ??                   db     ?
1000:30003245 ??                   db     ?
1000:30003246 ??                   db     ?
1000:30003247 ??                   db     ?
1000:30003248 ??                   db     ?
1000:30003249 ??                   db     ?
1000:3000324a ??                   db     ?
1000:3000324b ??                   db     ?
1000:3000324c ??                   db     ?
1000:3000324d ??                   db     ?
1000:3000324e ??                   db     ?
1000:3000324f ??                   db     ?
1000:30003250 ??                   db     ?
1000:30003251 ??                   db     ?
1000:30003252 ??                   db     ?
1000:30003253 ??                   db     ?
1000:30003254 ??                   db     ?
1000:30003255 ??                   db     ?
1000:30003256 ??                   db     ?
1000:30003257 ??                   db     ?
1000:30003258 ??                   db     ?
1000:30003259 ??                   db     ?
1000:3000325a ??                   db     ?
1000:3000325b ??                   db     ?
1000:3000325c ??                   db     ?
1000:3000325d ??                   db     ?
1000:3000325e ??                   db     ?
1000:3000325f ??                   db     ?
1000:30003260 ??                   db     ?
1000:30003261 ??                   db     ?
1000:30003262 ??                   db     ?
1000:30003263 ??                   db     ?
1000:30003264 ??                   db     ?
1000:30003265 ??                   db     ?
1000:30003266 ??                   db     ?
1000:30003267 ??                   db     ?
1000:30003268 ??                   db     ?
1000:30003269 ??                   db     ?
1000:3000326a ??                   db     ?
1000:3000326b ??                   db     ?
1000:3000326c ??                   db     ?
1000:3000326d ??                   db     ?
1000:3000326e ??                   db     ?
1000:3000326f ??                   db     ?
1000:30003270 ??                   db     ?
1000:30003271 ??                   db     ?
1000:30003272 ??                   db     ?
1000:30003273 ??                   db     ?
1000:30003274 ??                   db     ?
1000:30003275 ??                   db     ?
1000:30003276 ??                   db     ?
1000:30003277 ??                   db     ?
1000:30003278 ??                   db     ?
1000:30003279 ??                   db     ?
1000:3000327a ??                   db     ?
1000:3000327b ??                   db     ?
1000:3000327c ??                   db     ?
1000:3000327d ??                   db     ?
1000:3000327e ??                   db     ?
1000:3000327f ??                   db     ?
1000:30003280 ??                   db     ?
1000:30003281 ??                   db     ?
1000:30003282 ??                   db     ?
1000:30003283 ??                   db     ?
1000:30003284 ??                   db     ?
1000:30003285 ??                   db     ?
1000:30003286 ??                   db     ?
1000:30003287 ??                   db     ?
1000:30003288 ??                   db     ?
1000:30003289 ??                   db     ?
1000:3000328a ??                   db     ?
1000:3000328b ??                   db     ?
1000:3000328c ??                   db     ?
1000:3000328d ??                   db     ?
1000:3000328e ??                   db     ?
1000:3000328f ??                   db     ?
1000:30003290 ??                   db     ?
1000:30003291 ??                   db     ?
1000:30003292 ??                   db     ?
1000:30003293 ??                   db     ?
1000:30003294 ??                   db     ?
1000:30003295 ??                   db     ?
1000:30003296 ??                   db     ?
1000:30003297 ??                   db     ?
1000:30003298 ??                   db     ?
1000:30003299 ??                   db     ?
1000:3000329a ??                   db     ?
1000:3000329b ??                   db     ?
1000:3000329c ??                   db     ?
1000:3000329d ??                   db     ?
1000:3000329e ??                   db     ?
1000:3000329f ??                   db     ?
1000:300032a0 ??                   db     ?
1000:300032a1 ??                   db     ?
1000:300032a2 ??                   db     ?
1000:300032a3 ??                   db     ?
1000:300032a4 ??                   db     ?
1000:300032a5 ??                   db     ?
1000:300032a6 ??                   db     ?
1000:300032a7 ??                   db     ?
1000:300032a8 ??                   db     ?
1000:300032a9 ??                   db     ?
1000:300032aa ??                   db     ?
1000:300032ab ??                   db     ?
1000:300032ac ??                   db     ?
1000:300032ad ??                   db     ?
1000:300032ae ??                   db     ?
1000:300032af ??                   db     ?
1000:300032b0 ??                   db     ?
1000:300032b1 ??                   db     ?
1000:300032b2 ??                   db     ?
1000:300032b3 ??                   db     ?
1000:300032b4 ??                   db     ?
1000:300032b5 ??                   db     ?
1000:300032b6 ??                   db     ?
1000:300032b7 ??                   db     ?
1000:300032b8 ??                   db     ?
1000:300032b9 ??                   db     ?
1000:300032ba ??                   db     ?
1000:300032bb ??                   db     ?
1000:300032bc ??                   db     ?
1000:300032bd ??                   db     ?
1000:300032be ??                   db     ?
1000:300032bf ??                   db     ?
1000:300032c0 ??                   db     ?
1000:300032c1 ??                   db     ?
1000:300032c2 ??                   db     ?
1000:300032c3 ??                   db     ?
1000:300032c4 ??                   db     ?
1000:300032c5 ??                   db     ?
1000:300032c6 ??                   db     ?
1000:300032c7 ??                   db     ?
1000:300032c8 ??                   db     ?
1000:300032c9 ??                   db     ?
1000:300032ca ??                   db     ?
1000:300032cb ??                   db     ?
1000:300032cc ??                   db     ?
1000:300032cd ??                   db     ?
1000:300032ce ??                   db     ?
1000:300032cf ??                   db     ?
1000:300032d0 ??                   db     ?
1000:300032d1 ??                   db     ?
1000:300032d2 ??                   db     ?
1000:300032d3 ??                   db     ?
1000:300032d4 ??                   db     ?
1000:300032d5 ??                   db     ?
1000:300032d6 ??                   db     ?
1000:300032d7 ??                   db     ?
1000:300032d8 ??                   db     ?
1000:300032d9 ??                   db     ?
1000:300032da ??                   db     ?
1000:300032db ??                   db     ?
1000:300032dc ??                   db     ?
1000:300032dd ??                   db     ?
1000:300032de ??                   db     ?
1000:300032df ??                   db     ?
1000:300032e0 ??                   db     ?
1000:300032e1 ??                   db     ?
1000:300032e2 ??                   db     ?
1000:300032e3 ??                   db     ?
1000:300032e4 ??                   db     ?
1000:300032e5 ??                   db     ?
1000:300032e6 ??                   db     ?
1000:300032e7 ??                   db     ?
1000:300032e8 ??                   db     ?
1000:300032e9 ??                   db     ?
1000:300032ea ??                   db     ?
1000:300032eb ??                   db     ?
1000:300032ec ??                   db     ?
1000:300032ed ??                   db     ?
1000:300032ee ??                   db     ?
1000:300032ef ??                   db     ?
1000:300032f0 ??                   db     ?
1000:300032f1 ??                   db     ?
1000:300032f2 ??                   db     ?
1000:300032f3 ??                   db     ?
1000:300032f4 ??                   db     ?
1000:300032f5 ??                   db     ?
1000:300032f6 ??                   db     ?
1000:300032f7 ??                   db     ?
1000:300032f8 ??                   db     ?
1000:300032f9 ??                   db     ?
1000:300032fa ??                   db     ?
1000:300032fb ??                   db     ?
1000:300032fc ??                   db     ?
1000:300032fd ??                   db     ?
1000:300032fe ??                   db     ?
1000:300032ff ??                   db     ?
1000:30003300 ??                   db     ?
1000:30003301 ??                   db     ?
1000:30003302 ??                   db     ?
1000:30003303 ??                   db     ?
1000:30003304 ??                   db     ?
1000:30003305 ??                   db     ?
1000:30003306 ??                   db     ?
1000:30003307 ??                   db     ?
1000:30003308 ??                   db     ?
1000:30003309 ??                   db     ?
1000:3000330a ??                   db     ?
1000:3000330b ??                   db     ?
1000:3000330c ??                   db     ?
1000:3000330d ??                   db     ?
1000:3000330e ??                   db     ?
1000:3000330f ??                   db     ?
1000:30003310 ??                   db     ?
1000:30003311 ??                   db     ?
1000:30003312 ??                   db     ?
1000:30003313 ??                   db     ?
1000:30003314 ??                   db     ?
1000:30003315 ??                   db     ?
1000:30003316 ??                   db     ?
1000:30003317 ??                   db     ?
1000:30003318 ??                   db     ?
1000:30003319 ??                   db     ?
1000:3000331a ??                   db     ?
1000:3000331b ??                   db     ?
1000:3000331c ??                   db     ?
1000:3000331d ??                   db     ?
1000:3000331e ??                   db     ?
1000:3000331f ??                   db     ?
1000:30003320 ??                   db     ?
1000:30003321 ??                   db     ?
1000:30003322 ??                   db     ?
1000:30003323 ??                   db     ?
1000:30003324 ??                   db     ?
1000:30003325 ??                   db     ?
1000:30003326 ??                   db     ?
1000:30003327 ??                   db     ?
1000:30003328 ??                   db     ?
1000:30003329 ??                   db     ?
1000:3000332a ??                   db     ?
1000:3000332b ??                   db     ?
1000:3000332c ??                   db     ?
1000:3000332d ??                   db     ?
1000:3000332e ??                   db     ?
1000:3000332f ??                   db     ?
1000:30003330 ??                   db     ?
1000:30003331 ??                   db     ?
1000:30003332 ??                   db     ?
1000:30003333 ??                   db     ?
1000:30003334 ??                   db     ?
1000:30003335 ??                   db     ?
1000:30003336 ??                   db     ?
1000:30003337 ??                   db     ?
1000:30003338 ??                   db     ?
1000:30003339 ??                   db     ?
1000:3000333a ??                   db     ?
1000:3000333b ??                   db     ?
1000:3000333c ??                   db     ?
1000:3000333d ??                   db     ?
1000:3000333e ??                   db     ?
1000:3000333f ??                   db     ?
1000:30003340 ??                   db     ?
1000:30003341 ??                   db     ?
1000:30003342 ??                   db     ?
1000:30003343 ??                   db     ?
1000:30003344 ??                   db     ?
1000:30003345 ??                   db     ?
1000:30003346 ??                   db     ?
1000:30003347 ??                   db     ?
1000:30003348 ??                   db     ?
1000:30003349 ??                   db     ?
1000:3000334a ??                   db     ?
1000:3000334b ??                   db     ?
1000:3000334c ??                   db     ?
1000:3000334d ??                   db     ?
1000:3000334e ??                   db     ?
1000:3000334f ??                   db     ?
1000:30003350 ??                   db     ?
1000:30003351 ??                   db     ?
1000:30003352 ??                   db     ?
1000:30003353 ??                   db     ?
1000:30003354 ??                   db     ?
1000:30003355 ??                   db     ?
1000:30003356 ??                   db     ?
1000:30003357 ??                   db     ?
1000:30003358 ??                   db     ?
1000:30003359 ??                   db     ?
1000:3000335a ??                   db     ?
1000:3000335b ??                   db     ?
1000:3000335c ??                   db     ?
1000:3000335d ??                   db     ?
1000:3000335e ??                   db     ?
1000:3000335f ??                   db     ?
1000:30003360 ??                   db     ?
1000:30003361 ??                   db     ?
1000:30003362 ??                   db     ?
1000:30003363 ??                   db     ?
1000:30003364 ??                   db     ?
1000:30003365 ??                   db     ?
1000:30003366 ??                   db     ?
1000:30003367 ??                   db     ?
1000:30003368 ??                   db     ?
1000:30003369 ??                   db     ?
1000:3000336a ??                   db     ?
1000:3000336b ??                   db     ?
1000:3000336c ??                   db     ?
1000:3000336d ??                   db     ?
1000:3000336e ??                   db     ?
1000:3000336f ??                   db     ?
1000:30003370 ??                   db     ?
1000:30003371 ??                   db     ?
1000:30003372 ??                   db     ?
1000:30003373 ??                   db     ?
1000:30003374 ??                   db     ?
1000:30003375 ??                   db     ?
1000:30003376 ??                   db     ?
1000:30003377 ??                   db     ?
1000:30003378 ??                   db     ?
1000:30003379 ??                   db     ?
1000:3000337a ??                   db     ?
1000:3000337b ??                   db     ?
1000:3000337c ??                   db     ?
1000:3000337d ??                   db     ?
1000:3000337e ??                   db     ?
1000:3000337f ??                   db     ?
1000:30003380 ??                   db     ?
1000:30003381 ??                   db     ?
1000:30003382 ??                   db     ?
1000:30003383 ??                   db     ?
